ccopy_reg
_reconstructor
p0
(csklearn.pipeline
Pipeline
p1
c__builtin__
object
p2
Ntp3
Rp4
(dp5
S'steps'
p6
(lp7
(S'pca'
p8
g0
(csklearn.decomposition.pca
PCA
p9
g2
Ntp10
Rp11
(dp12
S'copy'
p13
I01
sS'n_components'
p14
NsS'whiten'
p15
I00
sbtp16
a(S'dt'
p17
g0
(csklearn.tree.tree
DecisionTreeClassifier
p18
g2
Ntp19
Rp20
(dp21
S'presort'
p22
I00
sS'splitter'
p23
S'best'
p24
sS'tree_'
p25
NsS'n_features_'
p26
NsS'n_outputs_'
p27
NsS'n_classes_'
p28
NsS'random_state'
p29
NsS'classes_'
p30
NsS'max_features_'
p31
NsS'min_samples_leaf'
p32
I3
sS'max_features'
p33
NsS'min_weight_fraction_leaf'
p34
F0.0
sS'criterion'
p35
S'gini'
p36
sS'max_leaf_nodes'
p37
NsS'min_samples_split'
p38
I10
sS'max_depth'
p39
I10
sS'class_weight'
p40
Nsbtp41
asb.