ccopy_reg
_reconstructor
p0
(csklearn.grid_search
GridSearchCV
p1
c__builtin__
object
p2
Ntp3
Rp4
(dp5
S'scoring'
p6
NsS'n_jobs'
p7
I1
sS'verbose'
p8
I0
sS'fit_params'
p9
(dp10
sS'refit'
p11
I01
sS'iid'
p12
I01
sS'estimator'
p13
g0
(csklearn.pipeline
Pipeline
p14
g2
Ntp15
Rp16
(dp17
S'steps'
p18
(lp19
(S'select'
p20
g0
(csklearn.feature_selection.univariate_selection
SelectKBest
p21
g2
Ntp22
Rp23
(dp24
S'k'
p25
I8
sS'score_func'
p26
csklearn.feature_selection.univariate_selection
f_classif
p27
sbtp28
a(S'scaler'
p29
g0
(csklearn.preprocessing.data
StandardScaler
p30
g2
Ntp31
Rp32
(dp33
S'copy'
p34
I01
sS'with_mean'
p35
I01
sS'with_std'
p36
I01
sbtp37
a(S'pca'
p38
g0
(csklearn.decomposition.pca
PCA
p39
g2
Ntp40
Rp41
(dp42
g34
I01
sS'n_components'
p43
NsS'whiten'
p44
I00
sbtp45
a(S'gNB'
p46
g0
(csklearn.naive_bayes
GaussianNB
p47
g2
Ntp48
Rp49
tp50
asbsS'error_score'
p51
S'raise'
p52
sS'pre_dispatch'
p53
S'2*n_jobs'
p54
sS'param_grid'
p55
(dp56
sS'cv'
p57
Nsb.