ccopy_reg
_reconstructor
p0
(csklearn.tree.tree
DecisionTreeClassifier
p1
c__builtin__
object
p2
Ntp3
Rp4
(dp5
S'presort'
p6
I00
sS'splitter'
p7
S'best'
p8
sS'tree_'
p9
NsS'n_features_'
p10
NsS'n_outputs_'
p11
NsS'n_classes_'
p12
NsS'random_state'
p13
I0
sS'classes_'
p14
NsS'max_features_'
p15
NsS'min_samples_leaf'
p16
I1
sS'max_features'
p17
NsS'min_weight_fraction_leaf'
p18
F0.0
sS'criterion'
p19
S'gini'
p20
sS'max_leaf_nodes'
p21
NsS'min_samples_split'
p22
I2
sS'max_depth'
p23
NsS'class_weight'
p24
Nsb.