(dp0
S'METTS MARK'
p1
(dp2
S'to_messages'
p3
I807
sS'deferral_payments'
p4
S'NaN'
p5
sS'expenses'
p6
I94299
sS'poi_email_reciept_interaction'
p7
I741
sS'poi'
p8
I00
sS'deferred_income'
p9
g5
sS'email_address'
p10
S'mark.metts@enron.com'
p11
sS'long_term_incentive'
p12
g5
sS'restricted_stock_deferred'
p13
g5
sS'shared_receipt_with_poi'
p14
I702
sS'loan_advances'
p15
g5
sS'from_messages'
p16
I29
sS'other'
p17
I1740
sS'director_fees'
p18
g5
sS'adj_compensation'
p19
I2612677
sS'bonus'
p20
I600000
sS'total_stock_value'
p21
I585062
sS'from_poi_to_this_person'
p22
I38
sS'poi_email_interaction'
p23
I39
sS'from_this_person_to_poi'
p24
I1
sS'restricted_stock'
p25
I585062
sS'salary'
p26
I365788
sS'total_payments'
p27
I1061827
sS'is_director'
p28
I1
sS'exercised_stock_options'
p29
g5
ssS'BAXTER JOHN C'
p30
(dp31
g3
g5
sg4
I1295738
sg6
I11200
sg7
I0
sg8
I00
sg9
I-1386055
sg10
g5
sg12
I1586055
sg13
g5
sg14
g5
sg15
g5
sg16
g5
sg17
I2660303
sg18
g5
sg19
I25991302
sg20
I1200000
sg21
I10623258
sg22
g5
sg23
I0
sg24
g5
sg25
I3942714
sg26
I267102
sg27
I5634343
sg28
I1
sg29
I6680544
ssS'ELLIOTT STEVEN'
p32
(dp33
g3
g5
sg4
g5
sg6
I78552
sg7
I0
sg8
I00
sg9
I-400729
sg10
S'steven.elliott@enron.com'
p34
sg12
g5
sg13
g5
sg14
g5
sg15
g5
sg16
g5
sg17
I12961
sg18
g5
sg19
I12301745
sg20
I350000
sg21
I6678735
sg22
g5
sg23
I0
sg24
g5
sg25
I1788391
sg26
I170941
sg27
I211725
sg28
I1
sg29
I4890344
ssS'CORDES WILLIAM R'
p35
(dp36
g3
I764
sg4
g5
sg6
g5
sg7
I68
sg8
I00
sg9
g5
sg10
S'bill.cordes@enron.com'
p37
sg12
g5
sg13
g5
sg14
I58
sg15
g5
sg16
I12
sg17
g5
sg18
g5
sg19
I1690035
sg20
g5
sg21
I1038185
sg22
I10
sg23
I10
sg24
I0
sg25
I386335
sg26
g5
sg27
g5
sg28
I1
sg29
I651850
ssS'HANNON KEVIN P'
p38
(dp39
g3
I1045
sg4
g5
sg6
I34039
sg7
I1088
sg8
I01
sg9
I-3117011
sg10
S'kevin.hannon@enron.com'
p40
sg12
I1617011
sg13
g5
sg14
I1035
sg15
g5
sg16
I32
sg17
I11350
sg18
g5
sg19
I15578052
sg20
I1500000
sg21
I6391065
sg22
I32
sg23
I53
sg24
I21
sg25
I853064
sg26
I243293
sg27
I288682
sg28
I1
sg29
I5538001
ssS'MORDAUNT KRISTINA M'
p41
(dp42
g3
g5
sg4
g5
sg6
I35018
sg7
I0
sg8
I00
sg9
g5
sg10
S'kristina.mordaunt@enron.com'
p43
sg12
g5
sg13
g5
sg14
g5
sg15
g5
sg16
g5
sg17
I1411
sg18
g5
sg19
I1429125
sg20
I325000
sg21
I208510
sg22
g5
sg23
I0
sg24
g5
sg25
I208510
sg26
I267093
sg27
I628522
sg28
I1
sg29
g5
ssS'MEYER ROCKFORD G'
p44
(dp45
g3
I232
sg4
I1848227
sg6
g5
sg7
I22
sg8
I00
sg9
g5
sg10
S'rockford.meyer@enron.com'
p46
sg12
g5
sg13
g5
sg14
I22
sg15
g5
sg16
I28
sg17
g5
sg18
g5
sg19
I3297589
sg20
g5
sg21
I955873
sg22
I0
sg23
I0
sg24
I0
sg25
I462384
sg26
g5
sg27
I1848227
sg28
I1
sg29
I493489
ssS'MCMAHON JEFFREY'
p47
(dp48
g3
I2355
sg4
g5
sg6
I137108
sg7
I2312
sg8
I00
sg9
g5
sg10
S'jeffrey.mcmahon@enron.com'
p49
sg12
I694862
sg13
g5
sg14
I2228
sg15
g5
sg16
I48
sg17
I297353
sg18
g5
sg19
I10531990
sg20
I2600000
sg21
I1662855
sg22
I58
sg23
I84
sg24
I26
sg25
I558801
sg26
I370448
sg27
I4099771
sg28
I1
sg29
I1104054
ssS'HORTON STANLEY C'
p50
(dp51
g3
I2350
sg4
I3131860
sg6
g5
sg7
I1133
sg8
I00
sg9
g5
sg10
S'stanley.horton@enron.com'
p52
sg12
g5
sg13
g5
sg14
I1074
sg15
g5
sg16
I1073
sg17
g5
sg18
g5
sg19
I15599077
sg20
g5
sg21
I7256648
sg22
I44
sg23
I59
sg24
I15
sg25
I2046079
sg26
g5
sg27
I3131860
sg28
I1
sg29
I5210569
ssS'PIPER GREGORY F'
p53
(dp54
g3
I1238
sg4
I1130036
sg6
I43057
sg7
I851
sg8
I00
sg9
I-33333
sg10
S'greg.piper@enron.com'
p55
sg12
g5
sg13
I-409554
sg14
I742
sg15
g5
sg16
I222
sg17
I778
sg18
g5
sg19
I4095300
sg20
I400000
sg21
I880290
sg22
I61
sg23
I109
sg24
I48
sg25
I409554
sg26
I197091
sg27
I1737629
sg28
I1
sg29
I880290
ssS'HUMPHREY GENE E'
p56
(dp57
g3
I128
sg4
I2964506
sg6
I4994
sg7
I146
sg8
I00
sg9
g5
sg10
S'gene.humphrey@enron.com'
p58
sg12
g5
sg13
g5
sg14
I119
sg15
g5
sg16
I17
sg17
g5
sg18
g5
sg19
I7796484
sg20
g5
sg21
I2282768
sg22
I10
sg23
I27
sg24
I17
sg25
g5
sg26
I130724
sg27
I3100224
sg28
I1
sg29
I2282768
ssS'UMANOFF ADAM S'
p59
(dp60
g3
I111
sg4
g5
sg6
I53122
sg7
I53
sg8
I00
sg9
g5
sg10
S'adam.umanoff@enron.com'
p61
sg12
g5
sg13
g5
sg14
I41
sg15
g5
sg16
I18
sg17
g5
sg18
g5
sg19
I2207800
sg20
I788750
sg21
g5
sg22
I12
sg23
I12
sg24
I0
sg25
g5
sg26
I288589
sg27
I1130461
sg28
I1
sg29
g5
ssS'BLACHMAN JEREMY M'
p62
(dp63
g3
I2475
sg4
g5
sg6
I84208
sg7
I2353
sg8
I00
sg9
g5
sg10
S'jeremy.blachman@enron.com'
p64
sg12
I831809
sg13
g5
sg14
I2326
sg15
g5
sg16
I14
sg17
I272
sg18
g5
sg19
I5664857
sg20
I850000
sg21
I954354
sg22
I25
sg23
I27
sg24
I2
sg25
I189041
sg26
I248546
sg27
I2014835
sg28
I1
sg29
I765313
ssS'SUNDE MARTIN'
p65
(dp66
g3
I2647
sg4
g5
sg6
g5
sg7
I2615
sg8
I00
sg9
g5
sg10
S'marty.sunde@enron.com'
p67
sg12
I476451
sg13
g5
sg14
I2565
sg15
g5
sg16
I38
sg17
I111122
sg18
g5
sg19
I3677916
sg20
I700000
sg21
I698920
sg22
I37
sg23
I50
sg24
I13
sg25
I698920
sg26
I257486
sg27
I1545059
sg28
I1
sg29
g5
ssS'GIBBS DANA R'
p68
(dp69
g3
I169
sg4
I504610
sg6
g5
sg7
I23
sg8
I00
sg9
g5
sg10
S'dana.gibbs@enron.com'
p70
sg12
I461912
sg13
g5
sg14
I23
sg15
g5
sg16
I12
sg17
g5
sg18
g5
sg19
I5864984
sg20
g5
sg21
I2218275
sg22
I0
sg23
I0
sg24
I0
sg25
g5
sg26
g5
sg27
I966522
sg28
I1
sg29
I2218275
ssS'LOWRY CHARLES P'
p71
(dp72
g3
g5
sg4
g5
sg6
g5
sg7
I0
sg8
I00
sg9
g5
sg10
g5
sg12
g5
sg13
I-153686
sg14
g5
sg15
g5
sg16
g5
sg17
g5
sg18
g5
sg19
I744410
sg20
g5
sg21
I372205
sg22
g5
sg23
I0
sg24
g5
sg25
I153686
sg26
g5
sg27
g5
sg28
I1
sg29
I372205
ssS'COLWELL WESLEY'
p73
(dp74
g3
I1758
sg4
I27610
sg6
I16514
sg7
I1383
sg8
I01
sg9
I-144062
sg10
S'wes.colwell@enron.com'
p75
sg12
g5
sg13
g5
sg14
I1132
sg15
g5
sg16
I40
sg17
I101740
sg18
g5
sg19
I3677128
sg20
I1200000
sg21
I698242
sg22
I240
sg23
I251
sg24
I11
sg25
I698242
sg26
I288542
sg27
I1490344
sg28
I1
sg29
g5
ssS'MULLER MARK S'
p76
(dp77
g3
I136
sg4
I842924
sg6
g5
sg7
I126
sg8
I00
sg9
I-719000
sg10
S's..muller@enron.com'
p78
sg12
I1725545
sg13
g5
sg14
I114
sg15
g5
sg16
I16
sg17
I947
sg18
g5
sg19
I8752437
sg20
I1100000
sg21
I1416848
sg22
I12
sg23
I12
sg24
I0
sg25
I360528
sg26
I251654
sg27
I3202070
sg28
I1
sg29
I1056320
ssS'JACKSON CHARLENE R'
p79
(dp80
g3
I258
sg4
g5
sg6
I10181
sg7
I161
sg8
I00
sg9
g5
sg10
S'charlene.jackson@enron.com'
p81
sg12
g5
sg13
g5
sg14
I117
sg15
g5
sg16
I56
sg17
I2435
sg18
g5
sg19
I2000530
sg20
I250000
sg21
I725735
sg22
I25
sg23
I44
sg24
I19
sg25
I540672
sg26
I288558
sg27
I551174
sg28
I1
sg29
I185063
ssS'WESTFAHL RICHARD K'
p82
(dp83
g3
g5
sg4
g5
sg6
I51870
sg7
I0
sg8
I00
sg9
I-10800
sg10
S'dick.westfahl@enron.com'
p84
sg12
I256191
sg13
g5
sg14
g5
sg15
g5
sg16
g5
sg17
I401130
sg18
g5
sg19
I1467000
sg20
g5
sg21
I384930
sg22
g5
sg23
I0
sg24
g5
sg25
I384930
sg26
I63744
sg27
I762135
sg28
I1
sg29
g5
ssS'WALTERS GARETH W'
p85
(dp86
g3
g5
sg4
I53625
sg6
I33785
sg7
I0
sg8
I00
sg9
g5
sg10
g5
sg12
g5
sg13
g5
sg14
g5
sg15
g5
sg16
g5
sg17
g5
sg18
g5
sg19
I2148068
sg20
g5
sg21
I1030329
sg22
g5
sg23
I0
sg24
g5
sg25
g5
sg26
g5
sg27
I87410
sg28
I1
sg29
I1030329
ssS'WALLS JR ROBERT H'
p87
(dp88
g3
I671
sg4
g5
sg6
I50936
sg7
I232
sg8
I00
sg9
g5
sg10
S'rob.walls@enron.com'
p89
sg12
I540751
sg13
g5
sg14
I215
sg15
g5
sg16
I146
sg17
I2
sg18
g5
sg19
I13792163
sg20
I850000
sg21
I5898997
sg22
I17
sg23
I17
sg24
I0
sg25
I1552453
sg26
I357091
sg27
I1798780
sg28
I1
sg29
I4346544
ssS'KITCHEN LOUISE'
p90
(dp91
g3
I8305
sg4
g5
sg6
I5774
sg7
I4114
sg8
I00
sg9
g5
sg10
S'louise.kitchen@enron.com'
p92
sg12
g5
sg13
g5
sg14
I3669
sg15
g5
sg16
I1728
sg17
I93925
sg18
g5
sg19
I7470768
sg20
I3100000
sg21
I547143
sg22
I251
sg23
I445
sg24
I194
sg25
I466101
sg26
I271442
sg27
I3471141
sg28
I1
sg29
I81042
ssS'CHAN RONNIE'
p93
(dp94
g3
g5
sg4
g5
sg6
g5
sg7
I0
sg8
I00
sg9
I-98784
sg10
g5
sg12
g5
sg13
I-32460
sg14
g5
sg15
g5
sg16
g5
sg17
g5
sg18
I98784
sg19
I0
sg20
g5
sg21
g5
sg22
g5
sg23
I0
sg24
g5
sg25
I32460
sg26
g5
sg27
g5
sg28
I1
sg29
g5
ssS'BELFER ROBERT'
p95
(dp96
g3
g5
sg4
I-102500
sg6
g5
sg7
I0
sg8
I00
sg9
g5
sg10
g5
sg12
g5
sg13
I44093
sg14
g5
sg15
g5
sg16
g5
sg17
g5
sg18
I3285
sg19
I61692
sg20
g5
sg21
I-44093
sg22
g5
sg23
I0
sg24
g5
sg25
g5
sg26
g5
sg27
I102500
sg28
I1
sg29
I3285
ssS'SHANKMAN JEFFREY A'
p97
(dp98
g3
I3221
sg4
g5
sg6
I178979
sg7
I1907
sg8
I00
sg9
g5
sg10
S'jeffrey.shankman@enron.com'
p99
sg12
I554422
sg13
g5
sg14
I1730
sg15
g5
sg16
I2681
sg17
I1191
sg18
g5
sg19
I9411167
sg20
I2000000
sg21
I2072035
sg22
I94
sg23
I177
sg24
I83
sg25
I630137
sg26
I304110
sg27
I3038702
sg28
I1
sg29
I1441898
ssS'WODRASKA JOHN'
p100
(dp101
g3
g5
sg4
g5
sg6
g5
sg7
I0
sg8
I00
sg9
g5
sg10
S'john.wodraska@enron.com'
p102
sg12
g5
sg13
g5
sg14
g5
sg15
g5
sg16
g5
sg17
I189583
sg18
g5
sg19
I189583
sg20
g5
sg21
g5
sg22
g5
sg23
I0
sg24
g5
sg25
g5
sg26
g5
sg27
I189583
sg28
I1
sg29
g5
ssS'BERGSIEKER RICHARD P'
p103
(dp104
g3
I383
sg4
g5
sg6
I59175
sg7
I237
sg8
I00
sg9
I-485813
sg10
S'rick.bergsieker@enron.com'
p105
sg12
I180250
sg13
g5
sg14
I233
sg15
g5
sg16
I59
sg17
I427316
sg18
g5
sg19
I1896271
sg20
I250000
sg21
I659249
sg22
I4
sg23
I4
sg24
I0
sg25
I659249
sg26
I187922
sg27
I618850
sg28
I1
sg29
g5
ssS'URQUHART JOHN A'
p106
(dp107
g3
g5
sg4
g5
sg6
I228656
sg7
I0
sg8
I00
sg9
I-36666
sg10
g5
sg12
g5
sg13
g5
sg14
g5
sg15
g5
sg16
g5
sg17
g5
sg18
I36666
sg19
I228656
sg20
g5
sg21
g5
sg22
g5
sg23
I0
sg24
g5
sg25
g5
sg26
g5
sg27
I228656
sg28
I1
sg29
g5
ssS'BIBI PHILIPPE A'
p108
(dp109
g3
I1607
sg4
g5
sg6
I38559
sg7
I1367
sg8
I00
sg9
g5
sg10
S'philippe.bibi@enron.com'
p110
sg12
I369721
sg13
g5
sg14
I1336
sg15
g5
sg16
I40
sg17
I425688
sg18
g5
sg19
I6940489
sg20
I1000000
sg21
I1843816
sg22
I23
sg23
I31
sg24
I8
sg25
I378082
sg26
I213625
sg27
I2047593
sg28
I1
sg29
I1465734
ssS'RIEKER PAULA H'
p111
(dp112
g3
I1328
sg4
I214678
sg6
I33271
sg7
I1341
sg8
I01
sg9
I-100000
sg10
S'paula.rieker@enron.com'
p113
sg12
g5
sg13
g5
sg14
I1258
sg15
g5
sg16
I82
sg17
I1950
sg18
g5
sg19
I5602426
sg20
I700000
sg21
I1918887
sg22
I35
sg23
I83
sg24
I48
sg25
I283649
sg26
I249201
sg27
I1099100
sg28
I1
sg29
I1635238
ssS'WHALEY DAVID A'
p114
(dp115
g3
g5
sg4
g5
sg6
g5
sg7
I0
sg8
I00
sg9
g5
sg10
g5
sg12
g5
sg13
g5
sg14
g5
sg15
g5
sg16
g5
sg17
g5
sg18
g5
sg19
I197436
sg20
g5
sg21
I98718
sg22
g5
sg23
I0
sg24
g5
sg25
g5
sg26
g5
sg27
g5
sg28
I1
sg29
I98718
ssS'BECK SALLY W'
p116
(dp117
g3
I7315
sg4
g5
sg6
I37172
sg7
I3169
sg8
I00
sg9
g5
sg10
S'sally.beck@enron.com'
p118
sg12
g5
sg13
g5
sg14
I2639
sg15
g5
sg16
I4343
sg17
I566
sg18
g5
sg19
I2026425
sg20
I700000
sg21
I126027
sg22
I144
sg23
I530
sg24
I386
sg25
I126027
sg26
I231330
sg27
I969068
sg28
I1
sg29
g5
ssS'HAUG DAVID L'
p119
(dp120
g3
I573
sg4
g5
sg6
I475
sg7
I482
sg8
I00
sg9
g5
sg10
S'david.haug@enron.com'
p121
sg12
g5
sg13
g5
sg14
I471
sg15
g5
sg16
I19
sg17
g5
sg18
g5
sg19
I2217774
sg20
g5
sg21
I2217299
sg22
I4
sg23
I11
sg24
I7
sg25
I2217299
sg26
g5
sg27
I475
sg28
I1
sg29
g5
ssS'ECHOLS JOHN B'
p122
(dp123
g3
g5
sg4
g5
sg6
I21530
sg7
I0
sg8
I00
sg9
g5
sg10
S'john.echols@enron.com'
p124
sg12
I2234774
sg13
g5
sg14
g5
sg15
g5
sg16
g5
sg17
I53775
sg18
g5
sg19
I6919722
sg20
I200000
sg21
I1008941
sg22
g5
sg23
I0
sg24
g5
sg25
I407503
sg26
I182245
sg27
I2692324
sg28
I1
sg29
I601438
ssS'MENDELSOHN JOHN'
p125
(dp126
g3
g5
sg4
g5
sg6
I148
sg7
I0
sg8
I00
sg9
I-103750
sg10
g5
sg12
g5
sg13
g5
sg14
g5
sg15
g5
sg16
g5
sg17
g5
sg18
I103750
sg19
I148
sg20
g5
sg21
g5
sg22
g5
sg23
I0
sg24
g5
sg25
g5
sg26
g5
sg27
I148
sg28
I1
sg29
g5
ssS'HICKERSON GARY J'
p127
(dp128
g3
I1320
sg4
g5
sg6
I98849
sg7
I941
sg8
I00
sg9
g5
sg10
S'gary.hickerson@enron.com'
p129
sg12
I69223
sg13
g5
sg14
I900
sg15
g5
sg16
I27
sg17
I1936
sg18
g5
sg19
I4503903
sg20
I1700000
sg21
I441096
sg22
I40
sg23
I41
sg24
I1
sg25
I441096
sg26
I211788
sg27
I2081796
sg28
I1
sg29
g5
ssS'CLINE KENNETH W'
p130
(dp131
g3
g5
sg4
g5
sg6
g5
sg7
I0
sg8
I00
sg9
g5
sg10
g5
sg12
g5
sg13
I-472568
sg14
g5
sg15
g5
sg16
g5
sg17
g5
sg18
g5
sg19
I189518
sg20
g5
sg21
I189518
sg22
g5
sg23
I0
sg24
g5
sg25
I662086
sg26
g5
sg27
g5
sg28
I1
sg29
g5
ssS'LEWIS RICHARD'
p132
(dp133
g3
I952
sg4
g5
sg6
g5
sg7
I749
sg8
I00
sg9
g5
sg10
S'richard.lewis@enron.com'
p134
sg12
g5
sg13
g5
sg14
I739
sg15
g5
sg16
I26
sg17
g5
sg18
g5
sg19
I1700954
sg20
g5
sg21
I850477
sg22
I10
sg23
I10
sg24
I0
sg25
g5
sg26
g5
sg27
g5
sg28
I1
sg29
I850477
ssS'HAYES ROBERT E'
p135
(dp136
g3
I504
sg4
I7961
sg6
g5
sg7
I66
sg8
I00
sg9
g5
sg10
S'robert.hayes@enron.com'
p137
sg12
g5
sg13
g5
sg14
I50
sg15
g5
sg16
I12
sg17
g5
sg18
g5
sg19
I159379
sg20
g5
sg21
I151418
sg22
I16
sg23
I16
sg24
I0
sg25
I151418
sg26
g5
sg27
I7961
sg28
I1
sg29
g5
ssS'MCCARTY DANNY J'
p138
(dp139
g3
I1433
sg4
g5
sg6
g5
sg7
I535
sg8
I00
sg9
g5
sg10
S'danny.mccarty@enron.com'
p140
sg12
g5
sg13
g5
sg14
I508
sg15
g5
sg16
I215
sg17
g5
sg18
g5
sg19
I1423306
sg20
g5
sg21
I758931
sg22
I25
sg23
I27
sg24
I2
sg25
I94556
sg26
g5
sg27
g5
sg28
I1
sg29
I664375
ssS'KOPPER MICHAEL J'
p141
(dp142
g3
g5
sg4
g5
sg6
I118134
sg7
I0
sg8
I01
sg9
g5
sg10
S'michael.kopper@enron.com'
p143
sg12
I602671
sg13
g5
sg14
g5
sg15
g5
sg16
g5
sg17
I907502
sg18
g5
sg19
I5264620
sg20
I800000
sg21
I985032
sg22
g5
sg23
I0
sg24
g5
sg25
I985032
sg26
I224305
sg27
I2652612
sg28
I1
sg29
g5
ssS'LEFF DANIEL P'
p144
(dp145
g3
I2822
sg4
g5
sg6
g5
sg7
I2753
sg8
I00
sg9
g5
sg10
S'dan.leff@enron.com'
p146
sg12
I1387399
sg13
g5
sg14
I2672
sg15
g5
sg16
I63
sg17
I3083
sg18
g5
sg19
I5685901
sg20
I1000000
sg21
I360528
sg22
I67
sg23
I81
sg24
I14
sg25
I360528
sg26
I273746
sg27
I2664228
sg28
I1
sg29
g5
ssS'LAVORATO JOHN J'
p147
(dp148
g3
I7259
sg4
g5
sg6
I49537
sg7
I4901
sg8
I00
sg9
g5
sg10
S'john.lavorato@enron.com'
p149
sg12
I2035380
sg13
g5
sg14
I3962
sg15
g5
sg16
I2585
sg17
I1552
sg18
g5
sg19
I30126564
sg20
I8000000
sg21
I5167144
sg22
I528
sg23
I939
sg24
I411
sg25
I1008149
sg26
I339288
sg27
I10425757
sg28
I1
sg29
I4158995
ssS'BERBERIAN DAVID'
p150
(dp151
g3
g5
sg4
g5
sg6
I11892
sg7
I0
sg8
I00
sg9
g5
sg10
S'david.berberian@enron.com'
p152
sg12
g5
sg13
g5
sg14
g5
sg15
g5
sg16
g5
sg17
g5
sg18
g5
sg19
I4563068
sg20
g5
sg21
I2493616
sg22
g5
sg23
I0
sg24
g5
sg25
I869220
sg26
I216582
sg27
I228474
sg28
I1
sg29
I1624396
ssS'DETMERING TIMOTHY J'
p153
(dp154
g3
g5
sg4
I875307
sg6
I52255
sg7
I0
sg8
I00
sg9
I-775241
sg10
S'timothy.detmering@enron.com'
p155
sg12
I415657
sg13
I-315068
sg14
g5
sg15
g5
sg16
g5
sg17
I1105
sg18
g5
sg19
I6311470
sg20
I425000
sg21
I2027865
sg22
g5
sg23
I0
sg24
g5
sg25
I315068
sg26
I210500
sg27
I1204583
sg28
I1
sg29
I2027865
ssS'WAKEHAM JOHN'
p156
(dp157
g3
g5
sg4
g5
sg6
I103773
sg7
I0
sg8
I00
sg9
g5
sg10
g5
sg12
g5
sg13
g5
sg14
g5
sg15
g5
sg16
g5
sg17
g5
sg18
I109298
sg19
I213071
sg20
g5
sg21
g5
sg22
g5
sg23
I0
sg24
g5
sg25
g5
sg26
g5
sg27
I213071
sg28
I1
sg29
g5
ssS'POWERS WILLIAM'
p158
(dp159
g3
I653
sg4
g5
sg6
g5
sg7
I12
sg8
I00
sg9
I-17500
sg10
S'ken.powers@enron.com'
p160
sg12
g5
sg13
g5
sg14
I12
sg15
g5
sg16
I26
sg17
g5
sg18
I17500
sg19
I0
sg20
g5
sg21
g5
sg22
I0
sg23
I0
sg24
I0
sg25
g5
sg26
g5
sg27
g5
sg28
I1
sg29
g5
ssS'GOLD JOSEPH'
p161
(dp162
g3
g5
sg4
g5
sg6
g5
sg7
I0
sg8
I00
sg9
g5
sg10
S'joe.gold@enron.com'
p163
sg12
I304805
sg13
g5
sg14
g5
sg15
g5
sg16
g5
sg17
I819288
sg18
g5
sg19
I4788784
sg20
I750000
sg21
I877611
sg22
g5
sg23
I0
sg24
g5
sg25
I441096
sg26
I272880
sg27
I2146973
sg28
I1
sg29
I436515
ssS'BANNANTINE JAMES M'
p164
(dp165
g3
I566
sg4
g5
sg6
I56301
sg7
I504
sg8
I00
sg9
I-5104
sg10
S'james.bannantine@enron.com'
p166
sg12
g5
sg13
I-560222
sg14
I465
sg15
g5
sg16
I29
sg17
I864523
sg18
g5
sg19
I10206318
sg20
g5
sg21
I5243487
sg22
I39
sg23
I39
sg24
I0
sg25
I1757552
sg26
I477
sg27
I916197
sg28
I1
sg29
I4046157
ssS'DUNCAN JOHN H'
p167
(dp168
g3
g5
sg4
g5
sg6
g5
sg7
I0
sg8
I00
sg9
I-25000
sg10
g5
sg12
g5
sg13
g5
sg14
g5
sg15
g5
sg16
g5
sg17
g5
sg18
I102492
sg19
I820992
sg20
g5
sg21
I371750
sg22
g5
sg23
I0
sg24
g5
sg25
g5
sg26
g5
sg27
I77492
sg28
I1
sg29
I371750
ssS'SHAPIRO RICHARD S'
p169
(dp170
g3
I15149
sg4
g5
sg6
I137767
sg7
I4666
sg8
I00
sg9
g5
sg10
S'richard.shapiro@enron.com'
p171
sg12
g5
sg13
g5
sg14
I4527
sg15
g5
sg16
I1215
sg17
I705
sg18
g5
sg19
I3571462
sg20
I650000
sg21
I987001
sg22
I74
sg23
I139
sg24
I65
sg25
I379164
sg26
I269076
sg27
I1057548
sg28
I1
sg29
I607837
ssS'SHERRIFF JOHN R'
p172
(dp173
g3
I3187
sg4
g5
sg6
g5
sg7
I2154
sg8
I00
sg9
g5
sg10
S'john.sherriff@enron.com'
p174
sg12
I554422
sg13
g5
sg14
I2103
sg15
g5
sg16
I92
sg17
I1852186
sg18
g5
sg19
I11783130
sg20
I1500000
sg21
I3128982
sg22
I28
sg23
I51
sg24
I23
sg25
I1293424
sg26
I428780
sg27
I4335388
sg28
I1
sg29
I1835558
ssS'SHELBY REX'
p175
(dp176
g3
I225
sg4
g5
sg6
I22884
sg7
I118
sg8
I01
sg9
I-4167
sg10
S'rex.shelby@enron.com'
p177
sg12
g5
sg13
g5
sg14
I91
sg15
g5
sg16
I39
sg17
I1573324
sg18
g5
sg19
I6533741
sg20
I200000
sg21
I2493616
sg22
I13
sg23
I27
sg24
I14
sg25
I869220
sg26
I211844
sg27
I2003885
sg28
I1
sg29
I1624396
ssS'LEMAISTRE CHARLES'
p178
(dp179
g3
g5
sg4
g5
sg6
g5
sg7
I0
sg8
I00
sg9
I-25000
sg10
g5
sg12
g5
sg13
g5
sg14
g5
sg15
g5
sg16
g5
sg17
g5
sg18
I112492
sg19
I913248
sg20
g5
sg21
I412878
sg22
g5
sg23
I0
sg24
g5
sg25
g5
sg26
g5
sg27
I87492
sg28
I1
sg29
I412878
ssS'DEFFNER JOSEPH M'
p180
(dp181
g3
I714
sg4
g5
sg6
I41626
sg7
I671
sg8
I00
sg9
g5
sg10
S'joseph.deffner@enron.com'
p182
sg12
I335349
sg13
g5
sg14
I552
sg15
g5
sg16
I74
sg17
I25553
sg18
g5
sg19
I2526708
sg20
I600000
sg21
I159211
sg22
I115
sg23
I119
sg24
I4
sg25
I141833
sg26
I206121
sg27
I1208649
sg28
I1
sg29
I17378
ssS'KISHKILL JOSEPH G'
p183
(dp184
g3
g5
sg4
g5
sg6
I116335
sg7
I0
sg8
I00
sg9
I-51042
sg10
S'joe.kishkill@enron.com'
p185
sg12
g5
sg13
g5
sg14
g5
sg15
g5
sg16
g5
sg17
I465357
sg18
g5
sg19
I1913488
sg20
g5
sg21
I1034346
sg22
g5
sg23
I0
sg24
g5
sg25
I1034346
sg26
I174246
sg27
I704896
sg28
I1
sg29
g5
ssS'WHALLEY LAWRENCE G'
p186
(dp187
g3
I6019
sg4
g5
sg6
I57838
sg7
I4130
sg8
I00
sg9
g5
sg10
S'greg.whalley@enron.com'
p188
sg12
I808346
sg13
g5
sg14
I3920
sg15
g5
sg16
I556
sg17
I301026
sg18
g5
sg19
I18358381
sg20
I3000000
sg21
I6079137
sg22
I186
sg23
I210
sg24
I24
sg25
I2796177
sg26
I510364
sg27
I4677574
sg28
I1
sg29
I3282960
ssS'MCCONNELL MICHAEL S'
p189
(dp190
g3
I3329
sg4
g5
sg6
I81364
sg7
I2475
sg8
I00
sg9
g5
sg10
S'mike.mcconnell@enron.com'
p191
sg12
I554422
sg13
g5
sg14
I2189
sg15
g5
sg16
I2742
sg17
I540
sg18
g5
sg19
I8845113
sg20
I1100000
sg21
I3101279
sg22
I92
sg23
I286
sg24
I194
sg25
I1478269
sg26
I365038
sg27
I2101364
sg28
I1
sg29
I1623010
ssS'PIRO JIM'
p192
(dp193
g3
I58
sg4
g5
sg6
g5
sg7
I4
sg8
I00
sg9
g5
sg10
S'jim.piro@enron.com'
p194
sg12
g5
sg13
g5
sg14
I3
sg15
g5
sg16
I16
sg17
g5
sg18
g5
sg19
I47304
sg20
g5
sg21
I47304
sg22
I0
sg23
I1
sg24
I1
sg25
I47304
sg26
g5
sg27
g5
sg28
I1
sg29
g5
ssS'DELAINEY DAVID W'
p195
(dp196
g3
I3093
sg4
g5
sg6
I86174
sg7
I2772
sg8
I01
sg9
g5
sg10
S'david.delainey@enron.com'
p197
sg12
I1294981
sg13
g5
sg14
I2097
sg15
g5
sg16
I3069
sg17
I1661
sg18
g5
sg19
I15313497
sg20
I3000000
sg21
I3614261
sg22
I66
sg23
I675
sg24
I609
sg25
I1323148
sg26
I365163
sg27
I4747979
sg28
I1
sg29
I2291113
ssS'SULLIVAN-SHAKLOVITZ COLLEEN'
p198
(dp199
g3
g5
sg4
I181993
sg6
g5
sg7
I0
sg8
I00
sg9
g5
sg10
g5
sg12
I554422
sg13
g5
sg14
g5
sg15
g5
sg16
g5
sg17
I162
sg18
g5
sg19
I4541307
sg20
I100000
sg21
I1362375
sg22
g5
sg23
I0
sg24
g5
sg25
g5
sg26
I162779
sg27
I999356
sg28
I1
sg29
I1362375
ssS'WROBEL BRUCE'
p200
(dp201
g3
g5
sg4
g5
sg6
g5
sg7
I0
sg8
I00
sg9
g5
sg10
g5
sg12
g5
sg13
g5
sg14
g5
sg15
g5
sg16
g5
sg17
g5
sg18
g5
sg19
I278260
sg20
g5
sg21
I139130
sg22
g5
sg23
I0
sg24
g5
sg25
g5
sg26
g5
sg27
g5
sg28
I1
sg29
I139130
ssS'LINDHOLM TOD A'
p202
(dp203
g3
g5
sg4
I204075
sg6
I57727
sg7
I0
sg8
I00
sg9
g5
sg10
S'tod.lindholm@enron.com'
p204
sg12
I175000
sg13
g5
sg14
g5
sg15
g5
sg16
g5
sg17
I2630
sg18
g5
sg19
I7100915
sg20
I200000
sg21
I3064208
sg22
g5
sg23
I0
sg24
g5
sg25
I514847
sg26
I236457
sg27
I875889
sg28
I1
sg29
I2549361
ssS'MEYER JEROME J'
p205
(dp206
g3
g5
sg4
g5
sg6
I2151
sg7
I0
sg8
I00
sg9
I-38346
sg10
g5
sg12
g5
sg13
g5
sg14
g5
sg15
g5
sg16
g5
sg17
g5
sg18
I38346
sg19
I2151
sg20
g5
sg21
g5
sg22
g5
sg23
I0
sg24
g5
sg25
g5
sg26
g5
sg27
I2151
sg28
I1
sg29
g5
ssS'LAY KENNETH L'
p207
(dp208
g3
I4273
sg4
I202911
sg6
I99832
sg7
I2550
sg8
I01
sg9
I-300000
sg10
S'kenneth.lay@enron.com'
p209
sg12
I3600000
sg13
g5
sg14
I2411
sg15
I81525000
sg16
I36
sg17
I10359729
sg18
g5
sg19
I198690576
sg20
I7000000
sg21
I49110078
sg22
I123
sg23
I139
sg24
I16
sg25
I14761694
sg26
I1072321
sg27
I103559793
sg28
I1
sg29
I34348384
ssS'BUTTS ROBERT H'
p210
(dp211
g3
g5
sg4
g5
sg6
I9410
sg7
I0
sg8
I00
sg9
I-75000
sg10
S'bob.butts@enron.com'
p212
sg12
I175000
sg13
g5
sg14
g5
sg15
g5
sg16
g5
sg17
I150656
sg18
g5
sg19
I2875717
sg20
I750000
sg21
I417619
sg22
g5
sg23
I0
sg24
g5
sg25
I417619
sg26
I261516
sg27
I1271582
sg28
I1
sg29
g5
ssS'OLSON CINDY K'
p213
(dp214
g3
I1184
sg4
I77716
sg6
I63791
sg7
I891
sg8
I00
sg9
g5
sg10
S'cindy.olson@enron.com'
p215
sg12
I100000
sg13
g5
sg14
I856
sg15
g5
sg16
I52
sg17
I972
sg18
g5
sg19
I6744432
sg20
I750000
sg21
I2606763
sg22
I20
sg23
I35
sg24
I15
sg25
I969729
sg26
I329078
sg27
I1321557
sg28
I1
sg29
I1637034
ssS'MCDONALD REBECCA'
p216
(dp217
g3
I894
sg4
g5
sg6
g5
sg7
I775
sg8
I00
sg9
g5
sg10
S'rebecca.mcdonald@enron.com'
p218
sg12
g5
sg13
g5
sg14
I720
sg15
g5
sg16
I13
sg17
g5
sg18
g5
sg19
I2448667
sg20
g5
sg21
I1691366
sg22
I54
sg23
I55
sg24
I1
sg25
I934065
sg26
g5
sg27
g5
sg28
I1
sg29
I757301
ssS'CUMBERLAND MICHAEL S'
p219
(dp220
g3
g5
sg4
g5
sg6
I22344
sg7
I0
sg8
I00
sg9
g5
sg10
g5
sg12
I275000
sg13
g5
sg14
g5
sg15
g5
sg16
g5
sg17
I713
sg18
g5
sg19
I1800795
sg20
I325000
sg21
I207940
sg22
g5
sg23
I0
sg24
g5
sg25
I207940
sg26
I184899
sg27
I807956
sg28
I1
sg29
g5
ssS'GAHN ROBERT S'
p221
(dp222
g3
g5
sg4
I73122
sg6
I50080
sg7
I0
sg8
I00
sg9
I-1042
sg10
g5
sg12
g5
sg13
g5
sg14
g5
sg15
g5
sg16
g5
sg17
I76547
sg18
g5
sg19
I2004307
sg20
I509870
sg21
I318607
sg22
g5
sg23
I0
sg24
g5
sg25
I235370
sg26
I192008
sg27
I900585
sg28
I1
sg29
I83237
ssS'MCCLELLAN GEORGE'
p223
(dp224
g3
I1744
sg4
g5
sg6
I228763
sg7
I1521
sg8
I00
sg9
I-125000
sg10
S'george.mcclellan@enron.com'
p225
sg12
g5
sg13
g5
sg14
I1469
sg15
g5
sg16
I49
sg17
I51587
sg18
g5
sg19
I3936802
sg20
I900000
sg21
I947861
sg22
I52
sg23
I52
sg24
I0
sg25
I441096
sg26
I263413
sg27
I1318763
sg28
I1
sg29
I506765
ssS'HERMANN ROBERT J'
p226
(dp227
g3
g5
sg4
g5
sg6
I48357
sg7
I0
sg8
I00
sg9
I-280000
sg10
S'robert.hermann@enron.com'
p228
sg12
I150000
sg13
g5
sg14
g5
sg15
g5
sg16
g5
sg17
I416441
sg18
g5
sg19
I3265756
sg20
I700000
sg21
I668132
sg22
g5
sg23
I0
sg24
g5
sg25
I480632
sg26
I262663
sg27
I1297461
sg28
I1
sg29
I187500
ssS'SCRIMSHAW MATTHEW'
p229
(dp230
g3
g5
sg4
g5
sg6
g5
sg7
I0
sg8
I00
sg9
g5
sg10
S'matthew.scrimshaw@enron.com'
p231
sg12
g5
sg13
g5
sg14
g5
sg15
g5
sg16
g5
sg17
g5
sg18
g5
sg19
I1519114
sg20
g5
sg21
I759557
sg22
g5
sg23
I0
sg24
g5
sg25
g5
sg26
g5
sg27
g5
sg28
I1
sg29
I759557
ssS'GATHMANN WILLIAM D'
p232
(dp233
g3
g5
sg4
g5
sg6
g5
sg7
I0
sg8
I00
sg9
g5
sg10
g5
sg12
g5
sg13
I-72419
sg14
g5
sg15
g5
sg16
g5
sg17
g5
sg18
g5
sg19
I3699126
sg20
g5
sg21
I1945360
sg22
g5
sg23
I0
sg24
g5
sg25
I264013
sg26
g5
sg27
g5
sg28
I1
sg29
I1753766
ssS'HAEDICKE MARK E'
p234
(dp235
g3
I4009
sg4
I2157527
sg6
I76169
sg7
I2088
sg8
I00
sg9
I-934484
sg10
S'mark.haedicke@enron.com'
p236
sg12
I983346
sg13
I-329825
sg14
I1847
sg15
g5
sg16
I1941
sg17
I52382
sg18
g5
sg19
I7778380
sg20
I1150000
sg21
I803094
sg22
I180
sg23
I241
sg24
I61
sg25
I524169
sg26
I374125
sg27
I3859065
sg28
I1
sg29
I608750
ssS'BOWEN JR RAYMOND M'
p237
(dp238
g3
I1858
sg4
g5
sg6
I65907
sg7
I1748
sg8
I01
sg9
I-833
sg10
S'raymond.bowen@enron.com'
p239
sg12
I974293
sg13
g5
sg14
I1593
sg15
g5
sg16
I27
sg17
I1621
sg18
g5
sg19
I5524538
sg20
I1350000
sg21
I252055
sg22
I140
sg23
I155
sg24
I15
sg25
I252055
sg26
I278601
sg27
I2669589
sg28
I1
sg29
g5
ssS'GILLIS JOHN'
p240
(dp241
g3
g5
sg4
g5
sg6
g5
sg7
I0
sg8
I00
sg9
g5
sg10
g5
sg12
g5
sg13
g5
sg14
g5
sg15
g5
sg16
g5
sg17
g5
sg18
g5
sg19
I95444
sg20
g5
sg21
I85641
sg22
g5
sg23
I0
sg24
g5
sg25
I75838
sg26
g5
sg27
g5
sg28
I1
sg29
I9803
ssS'FITZGERALD JAY L'
p242
(dp243
g3
I936
sg4
g5
sg6
I23870
sg7
I732
sg8
I00
sg9
g5
sg10
S'jay.fitzgerald@enron.com'
p244
sg12
I556416
sg13
g5
sg14
I723
sg15
g5
sg16
I16
sg17
I285414
sg18
g5
sg19
I4806127
sg20
I350000
sg21
I1621236
sg22
I1
sg23
I9
sg24
I8
sg25
I956775
sg26
I199157
sg27
I1414857
sg28
I1
sg29
I664461
ssS'MORAN MICHAEL P'
p245
(dp246
g3
I672
sg4
g5
sg6
g5
sg7
I127
sg8
I00
sg9
g5
sg10
S'michael.moran@enron.com'
p247
sg12
g5
sg13
g5
sg14
I127
sg15
g5
sg16
I19
sg17
g5
sg18
g5
sg19
I280680
sg20
g5
sg21
I221141
sg22
I0
sg23
I0
sg24
I0
sg25
I161602
sg26
g5
sg27
g5
sg28
I1
sg29
I59539
ssS'REDMOND BRIAN L'
p248
(dp249
g3
I1671
sg4
g5
sg6
I14689
sg7
I1316
sg8
I00
sg9
g5
sg10
S'brian.redmond@enron.com'
p250
sg12
g5
sg13
g5
sg14
I1063
sg15
g5
sg16
I221
sg17
g5
sg18
g5
sg19
I15607732
sg20
g5
sg21
I7890324
sg22
I204
sg23
I253
sg24
I49
sg25
I381285
sg26
I96840
sg27
I111529
sg28
I1
sg29
I7509039
ssS'BAZELIDES PHILIP J'
p251
(dp252
g3
g5
sg4
I684694
sg6
g5
sg7
I0
sg8
I00
sg9
g5
sg10
g5
sg12
I93750
sg13
g5
sg14
g5
sg15
g5
sg16
g5
sg17
I874
sg18
g5
sg19
I4233986
sg20
g5
sg21
I1599641
sg22
g5
sg23
I0
sg24
g5
sg25
g5
sg26
I80818
sg27
I860136
sg28
I1
sg29
I1599641
ssS'BELDEN TIMOTHY N'
p253
(dp254
g3
I7991
sg4
I2144013
sg6
I17355
sg7
I5857
sg8
I01
sg9
I-2334434
sg10
S'tim.belden@enron.com'
p255
sg12
g5
sg13
g5
sg14
I5521
sg15
g5
sg16
I484
sg17
I210698
sg18
g5
sg19
I13029469
sg20
I5249999
sg21
I1110705
sg22
I228
sg23
I336
sg24
I108
sg25
I157569
sg26
I213999
sg27
I5501630
sg28
I1
sg29
I953136
ssS'DURAN WILLIAM D'
p256
(dp257
g3
I904
sg4
g5
sg6
I25785
sg7
I708
sg8
I00
sg9
g5
sg10
S'w.duran@enron.com'
p258
sg12
I1105218
sg13
g5
sg14
I599
sg15
g5
sg16
I12
sg17
I1568
sg18
g5
sg19
I7251952
sg20
I750000
sg21
I1640910
sg22
I106
sg23
I109
sg24
I3
sg25
I189041
sg26
I210692
sg27
I2093263
sg28
I1
sg29
I1451869
ssS'THORN TERENCE H'
p259
(dp260
g3
I266
sg4
I16586
sg6
I46145
sg7
I73
sg8
I00
sg9
g5
sg10
S'terence.thorn@enron.com'
p261
sg12
I200000
sg13
g5
sg14
I73
sg15
g5
sg16
I41
sg17
I426629
sg18
g5
sg19
I10603818
sg20
g5
sg21
I4817796
sg22
I0
sg23
I0
sg24
I0
sg25
I365320
sg26
I222093
sg27
I911453
sg28
I1
sg29
I4452476
ssS'FASTOW ANDREW S'
p262
(dp263
g3
g5
sg4
g5
sg6
I55921
sg7
I0
sg8
I01
sg9
I-1386055
sg10
S'andrew.fastow@enron.com'
p264
sg12
I1736055
sg13
g5
sg14
g5
sg15
g5
sg16
g5
sg17
I277464
sg18
g5
sg19
I7695248
sg20
I1300000
sg21
I1794412
sg22
g5
sg23
I0
sg24
g5
sg25
I1794412
sg26
I440698
sg27
I2424083
sg28
I1
sg29
g5
ssS'FOY JOE'
p265
(dp266
g3
I57
sg4
I181755
sg6
g5
sg7
I2
sg8
I00
sg9
g5
sg10
S'tracy.foy@enron.com'
p267
sg12
g5
sg13
g5
sg14
I2
sg15
g5
sg16
I13
sg17
g5
sg18
g5
sg19
I868623
sg20
g5
sg21
I343434
sg22
I0
sg23
I0
sg24
I0
sg25
g5
sg26
g5
sg27
I181755
sg28
I1
sg29
I343434
ssS'CALGER CHRISTOPHER F'
p268
(dp269
g3
I2598
sg4
g5
sg6
I35818
sg7
I2412
sg8
I01
sg9
I-262500
sg10
S'christopher.calger@enron.com'
p270
sg12
I375304
sg13
g5
sg14
I2188
sg15
g5
sg16
I144
sg17
I486
sg18
g5
sg19
I3630817
sg20
I1250000
sg21
I126027
sg22
I199
sg23
I224
sg24
I25
sg25
I126027
sg26
I240189
sg27
I1639297
sg28
I1
sg29
g5
ssS'RICE KENNETH D'
p271
(dp272
g3
I905
sg4
g5
sg6
I46950
sg7
I910
sg8
I01
sg9
I-3504386
sg10
S'ken.rice@enron.com'
p273
sg12
I1617011
sg13
g5
sg14
I864
sg15
g5
sg16
I18
sg17
I174839
sg18
g5
sg19
I46629411
sg20
I1750000
sg21
I22542539
sg22
I42
sg23
I46
sg24
I4
sg25
I2748364
sg26
I420636
sg27
I505050
sg28
I1
sg29
I19794175
ssS'KAMINSKI WINCENTY J'
p274
(dp275
g3
I4607
sg4
g5
sg6
I83585
sg7
I795
sg8
I00
sg9
g5
sg10
S'vince.kaminski@enron.com'
p276
sg12
I323466
sg13
g5
sg14
I583
sg15
g5
sg16
I14368
sg17
I4669
sg18
g5
sg19
I3911435
sg20
I400000
sg21
I976037
sg22
I41
sg23
I212
sg24
I171
sg25
I126027
sg26
I275101
sg27
I1086821
sg28
I1
sg29
I850010
ssS'COX DAVID'
p277
(dp278
g3
I102
sg4
g5
sg6
I27861
sg7
I75
sg8
I00
sg9
I-41250
sg10
S'chip.cox@enron.com'
p279
sg12
g5
sg13
g5
sg14
I71
sg15
g5
sg16
I33
sg17
I494
sg18
g5
sg19
I2828865
sg20
I800000
sg21
I495633
sg22
I0
sg23
I4
sg24
I4
sg25
I378082
sg26
I314288
sg27
I1101393
sg28
I1
sg29
I117551
ssS'OVERDYKE JR JERE C'
p280
(dp281
g3
g5
sg4
g5
sg6
I18834
sg7
I0
sg8
I00
sg9
g5
sg10
S'jere.overdyke@enron.com'
p282
sg12
I135836
sg13
g5
sg14
g5
sg15
g5
sg16
g5
sg17
I176
sg18
g5
sg19
I13054736
sg20
g5
sg21
I7307594
sg22
g5
sg23
I0
sg24
g5
sg25
I2041016
sg26
I94941
sg27
I249787
sg28
I1
sg29
I5266578
ssS'PEREIRA PAULO V. FERRAZ'
p283
(dp284
g3
g5
sg4
g5
sg6
I27942
sg7
I0
sg8
I00
sg9
I-101250
sg10
g5
sg12
g5
sg13
g5
sg14
g5
sg15
g5
sg16
g5
sg17
g5
sg18
I101250
sg19
I27942
sg20
g5
sg21
g5
sg22
g5
sg23
I0
sg24
g5
sg25
g5
sg26
g5
sg27
I27942
sg28
I1
sg29
g5
ssS'STABLER FRANK'
p285
(dp286
g3
g5
sg4
g5
sg6
I16514
sg7
I0
sg8
I00
sg9
g5
sg10
S'frank.stabler@enron.com'
p287
sg12
g5
sg13
g5
sg14
g5
sg15
g5
sg16
g5
sg17
I356071
sg18
g5
sg19
I2363323
sg20
I500000
sg21
I511734
sg22
g5
sg23
I0
sg24
g5
sg25
I511734
sg26
I239502
sg27
I1112087
sg28
I1
sg29
g5
ssS'SKILLING JEFFREY K'
p288
(dp289
g3
I3627
sg4
g5
sg6
I29336
sg7
I2160
sg8
I01
sg9
g5
sg10
S'jeff.skilling@enron.com'
p290
sg12
I1920000
sg13
g5
sg14
I2042
sg15
g5
sg16
I108
sg17
I22122
sg18
g5
sg19
I62657646
sg20
I5600000
sg21
I26093672
sg22
I88
sg23
I118
sg24
I30
sg25
I6843672
sg26
I1111258
sg27
I8682716
sg28
I1
sg29
I19250000
ssS'BLAKE JR. NORMAN P'
p291
(dp292
g3
g5
sg4
g5
sg6
I1279
sg7
I0
sg8
I00
sg9
I-113784
sg10
g5
sg12
g5
sg13
g5
sg14
g5
sg15
g5
sg16
g5
sg17
g5
sg18
I113784
sg19
I1279
sg20
g5
sg21
g5
sg22
g5
sg23
I0
sg24
g5
sg25
g5
sg26
g5
sg27
I1279
sg28
I1
sg29
g5
ssS'SHERRICK JEFFREY B'
p293
(dp294
g3
I613
sg4
g5
sg6
g5
sg7
I640
sg8
I00
sg9
g5
sg10
S'jeffrey.sherrick@enron.com'
p295
sg12
g5
sg13
g5
sg14
I583
sg15
g5
sg16
I25
sg17
g5
sg18
g5
sg19
I3258937
sg20
g5
sg21
I1832468
sg22
I39
sg23
I57
sg24
I18
sg25
I405999
sg26
g5
sg27
g5
sg28
I1
sg29
I1426469
ssS'PRENTICE JAMES'
p296
(dp297
g3
g5
sg4
I564348
sg6
g5
sg7
I0
sg8
I00
sg9
g5
sg10
S'james.prentice@enron.com'
p298
sg12
g5
sg13
g5
sg14
g5
sg15
g5
sg16
g5
sg17
g5
sg18
g5
sg19
I2545619
sg20
g5
sg21
I1095040
sg22
g5
sg23
I0
sg24
g5
sg25
I208809
sg26
g5
sg27
I564348
sg28
I1
sg29
I886231
ssS'GRAY RODNEY'
p299
(dp300
g3
g5
sg4
I93585
sg6
g5
sg7
I0
sg8
I00
sg9
g5
sg10
g5
sg12
I365625
sg13
g5
sg14
g5
sg15
g5
sg16
g5
sg17
I680833
sg18
g5
sg19
I1518898
sg20
g5
sg21
g5
sg22
g5
sg23
I0
sg24
g5
sg25
g5
sg26
I6615
sg27
I1146658
sg28
I1
sg29
g5
ssS'PICKERING MARK R'
p301
(dp302
g3
I898
sg4
g5
sg6
I31653
sg7
I735
sg8
I00
sg9
g5
sg10
S'mark.pickering@enron.com'
p303
sg12
g5
sg13
g5
sg14
I728
sg15
I400000
sg16
I67
sg17
g5
sg18
g5
sg19
I2399323
sg20
I300000
sg21
I28798
sg22
I7
sg23
I7
sg24
I0
sg25
g5
sg26
I655037
sg27
I1386690
sg28
I1
sg29
I28798
ssS'NOLES JAMES L'
p304
(dp305
g3
g5
sg4
I774401
sg6
g5
sg7
I0
sg8
I00
sg9
g5
sg10
g5
sg12
g5
sg13
I-94556
sg14
g5
sg15
g5
sg16
g5
sg17
g5
sg18
g5
sg19
I1143106
sg20
g5
sg21
I368705
sg22
g5
sg23
I0
sg24
g5
sg25
I463261
sg26
g5
sg27
I774401
sg28
I1
sg29
g5
ssS'KEAN STEVEN J'
p306
(dp307
g3
I12754
sg4
g5
sg6
I41953
sg7
I4166
sg8
I00
sg9
g5
sg10
S'steven.kean@enron.com'
p308
sg12
I300000
sg13
g5
sg14
I3639
sg15
g5
sg16
I6759
sg17
I1231
sg18
g5
sg19
I11627550
sg20
I1000000
sg21
I6153642
sg22
I140
sg23
I527
sg24
I387
sg25
I4131594
sg26
I404338
sg27
I1747522
sg28
I1
sg29
I2022048
ssS'FOWLER PEGGY'
p309
(dp310
g3
I517
sg4
g5
sg6
g5
sg7
I10
sg8
I00
sg9
g5
sg10
S'kulvinder.fowler@enron.com'
p311
sg12
g5
sg13
g5
sg14
I10
sg15
g5
sg16
I36
sg17
g5
sg18
g5
sg19
I3209326
sg20
g5
sg21
I1884748
sg22
I0
sg23
I0
sg24
I0
sg25
I560170
sg26
g5
sg27
g5
sg28
I1
sg29
I1324578
ssS'WASAFF GEORGE'
p312
(dp313
g3
I400
sg4
I831299
sg6
g5
sg7
I366
sg8
I00
sg9
I-583325
sg10
S'george.wasaff@enron.com'
p314
sg12
I200000
sg13
g5
sg14
I337
sg15
g5
sg16
I30
sg17
I1425
sg18
g5
sg19
I5544078
sg20
I325000
sg21
I2056427
sg22
I22
sg23
I29
sg24
I7
sg25
I388167
sg26
I259996
sg27
I1034395
sg28
I1
sg29
I1668260
ssS'WHITE JR THOMAS E'
p315
(dp316
g3
g5
sg4
g5
sg6
I81353
sg7
I0
sg8
I00
sg9
g5
sg10
S'thomas.white@enron.com'
p317
sg12
g5
sg13
g5
sg14
g5
sg15
g5
sg16
g5
sg17
I1085463
sg18
g5
sg19
I19143074
sg20
I450000
sg21
I15144123
sg22
g5
sg23
I0
sg24
g5
sg25
I13847074
sg26
I317543
sg27
I1934359
sg28
I1
sg29
I1297049
ssS'CHRISTODOULOU DIOMEDES'
p318
(dp319
g3
g5
sg4
g5
sg6
g5
sg7
I0
sg8
I00
sg9
g5
sg10
S'diomedes.christodoulou@enron.com'
p320
sg12
g5
sg13
g5
sg14
g5
sg15
g5
sg16
g5
sg17
g5
sg18
g5
sg19
I11205040
sg20
g5
sg21
I6077885
sg22
g5
sg23
I0
sg24
g5
sg25
I950730
sg26
g5
sg27
g5
sg28
I1
sg29
I5127155
ssS'ALLEN PHILLIP K'
p321
(dp322
g3
I2902
sg4
I2869717
sg6
I13868
sg7
I1519
sg8
I00
sg9
I-3081055
sg10
S'phillip.allen@enron.com'
p323
sg12
I304805
sg13
I-126027
sg14
I1407
sg15
g5
sg16
I2195
sg17
I152
sg18
g5
sg19
I12625284
sg20
I4175000
sg21
I1729541
sg22
I47
sg23
I112
sg24
I65
sg25
I126027
sg26
I201955
sg27
I4484442
sg28
I1
sg29
I1729541
ssS'SHARP VICTORIA T'
p324
(dp325
g3
I3136
sg4
I187469
sg6
I116337
sg7
I2507
sg8
I00
sg9
g5
sg10
S'vicki.sharp@enron.com'
p326
sg12
I422158
sg13
g5
sg14
I2477
sg15
g5
sg16
I136
sg17
I2401
sg18
g5
sg19
I3622024
sg20
I600000
sg21
I494136
sg22
I24
sg23
I30
sg24
I6
sg25
I213063
sg26
I248146
sg27
I1576511
sg28
I1
sg29
I281073
ssS'JAEDICKE ROBERT'
p327
(dp328
g3
g5
sg4
g5
sg6
g5
sg7
I0
sg8
I00
sg9
I-25000
sg10
g5
sg12
g5
sg13
I-44093
sg14
g5
sg15
g5
sg16
g5
sg17
g5
sg18
I108750
sg19
I947250
sg20
g5
sg21
I431750
sg22
g5
sg23
I0
sg24
g5
sg25
I44093
sg26
g5
sg27
I83750
sg28
I1
sg29
I431750
ssS'WINOKUR JR. HERBERT S'
p329
(dp330
g3
g5
sg4
g5
sg6
I1413
sg7
I0
sg8
I00
sg9
I-25000
sg10
g5
sg12
g5
sg13
g5
sg14
g5
sg15
g5
sg16
g5
sg17
g5
sg18
I108579
sg19
I84992
sg20
g5
sg21
g5
sg22
g5
sg23
I0
sg24
g5
sg25
g5
sg26
g5
sg27
I84992
sg28
I1
sg29
g5
ssS'BROWN MICHAEL'
p331
(dp332
g3
I1486
sg4
g5
sg6
I49288
sg7
I775
sg8
I00
sg9
g5
sg10
S'michael.brown@enron.com'
p333
sg12
g5
sg13
g5
sg14
I761
sg15
g5
sg16
I41
sg17
g5
sg18
g5
sg19
I49288
sg20
g5
sg21
g5
sg22
I13
sg23
I14
sg24
I1
sg25
g5
sg26
g5
sg27
I49288
sg28
I1
sg29
g5
ssS'BADUM JAMES P'
p334
(dp335
g3
g5
sg4
I178980
sg6
I3486
sg7
I0
sg8
I00
sg9
g5
sg10
g5
sg12
g5
sg13
g5
sg14
g5
sg15
g5
sg16
g5
sg17
g5
sg18
g5
sg19
I698100
sg20
g5
sg21
I257817
sg22
g5
sg23
I0
sg24
g5
sg25
g5
sg26
g5
sg27
I182466
sg28
I1
sg29
I257817
ssS'HUGHES JAMES A'
p336
(dp337
g3
I719
sg4
g5
sg6
g5
sg7
I629
sg8
I00
sg9
g5
sg10
S'james.hughes@enron.com'
p338
sg12
g5
sg13
g5
sg14
I589
sg15
g5
sg16
I34
sg17
g5
sg18
g5
sg19
I1873360
sg20
g5
sg21
I1118394
sg22
I35
sg23
I40
sg24
I5
sg25
I363428
sg26
g5
sg27
g5
sg28
I1
sg29
I754966
ssS'REYNOLDS LAWRENCE'
p339
(dp340
g3
g5
sg4
I51365
sg6
I8409
sg7
I0
sg8
I00
sg9
I-200000
sg10
g5
sg12
I156250
sg13
I-140264
sg14
g5
sg15
g5
sg16
g5
sg17
I202052
sg18
g5
sg19
I9109687
sg20
I100000
sg21
I4221891
sg22
g5
sg23
I0
sg24
g5
sg25
I201483
sg26
I76399
sg27
I394475
sg28
I1
sg29
I4160672
ssS'DIMICHELE RICHARD G'
p341
(dp342
g3
g5
sg4
g5
sg6
I35812
sg7
I0
sg8
I00
sg9
g5
sg10
S'richard.dimichele@enron.com'
p343
sg12
I694862
sg13
g5
sg14
g5
sg15
g5
sg16
g5
sg17
I374689
sg18
g5
sg19
I20835338
sg20
I1000000
sg21
I8317782
sg22
g5
sg23
I0
sg24
g5
sg25
I126027
sg26
I262788
sg27
I2368151
sg28
I1
sg29
I8191755
ssS'BHATNAGAR SANJAY'
p344
(dp345
g3
I523
sg4
g5
sg6
g5
sg7
I464
sg8
I00
sg9
g5
sg10
S'sanjay.bhatnagar@enron.com'
p346
sg12
g5
sg13
I15456290
sg14
I463
sg15
g5
sg16
I29
sg17
I137864
sg18
I137864
sg19
I18060780
sg20
g5
sS'total_stock_value'
p347
S'NaN'
p348
sg22
I0
sg23
I1
sg24
I1
sg25
I-2604490
sg26
g5
sg27
I15456290
sg28
I1
sg29
I2604490
ssS'CARTER REBECCA C'
p349
(dp350
g3
I312
sg4
g5
sg6
g5
sg7
I232
sg8
I00
sg9
I-159792
sg10
S'rebecca.carter@enron.com'
p351
sg12
I75000
sg13
I-307301
sg14
I196
sg15
g5
sg16
I15
sg17
I540
sg18
g5
sg19
I1114366
sg20
I300000
sg21
g5
sg22
I29
sg23
I36
sg24
I7
sg25
I307301
sg26
I261809
sg27
I477557
sg28
I1
sg29
g5
ssS'BUCHANAN HAROLD G'
p352
(dp353
g3
I1088
sg4
g5
sg6
I600
sg7
I23
sg8
I00
sg9
g5
sg10
S'john.buchanan@enron.com'
p354
sg12
I304805
sg13
g5
sg14
I23
sg15
g5
sg16
I125
sg17
I1215
sg18
g5
sg19
I3947428
sg20
I500000
sg21
I1014505
sg22
I0
sg23
I0
sg24
I0
sg25
I189041
sg26
I248017
sg27
I1054637
sg28
I1
sg29
I825464
ssS'YEAP SOON'
p355
(dp356
g3
g5
sg4
g5
sg6
I55097
sg7
I0
sg8
I00
sg9
g5
sg10
g5
sg12
g5
sg13
g5
sg14
g5
sg15
g5
sg16
g5
sg17
g5
sg18
g5
sg19
I440613
sg20
g5
sg21
I192758
sg22
g5
sg23
I0
sg24
g5
sg25
g5
sg26
g5
sg27
I55097
sg28
I1
sg29
I192758
ssS'MURRAY JULIA H'
p357
(dp358
g3
I2192
sg4
g5
sg6
I57580
sg7
I408
sg8
I00
sg9
g5
sg10
S'julia.murray@enron.com'
p359
sg12
I125000
sg13
g5
sg14
I395
sg15
g5
sg16
I45
sg17
I330
sg18
g5
sg19
I2564417
sg20
I400000
sg21
I597461
sg22
I11
sg23
I13
sg24
I2
sg25
I196983
sg26
I229284
sg27
I812194
sg28
I1
sg29
I400478
ssS'GARLAND C KEVIN'
p360
(dp361
g3
I209
sg4
g5
sg6
I48405
sg7
I215
sg8
I00
sg9
g5
sg10
S'kevin.garland@enron.com'
p362
sg12
I375304
sg13
g5
sg14
I178
sg15
g5
sg16
I44
sg17
I60814
sg18
g5
sg19
I4556118
sg20
I850000
sg21
I896153
sg22
I10
sg23
I37
sg24
I27
sg25
I259907
sg26
I231946
sg27
I1566469
sg28
I1
sg29
I636246
ssS'DODSON KEITH'
p363
(dp364
g3
I176
sg4
g5
sg6
I28164
sg7
I127
sg8
I00
sg9
g5
sg10
S'keith.dodson@enron.com'
p365
sg12
g5
sg13
g5
sg14
I114
sg15
g5
sg16
I14
sg17
I774
sg18
g5
sg19
I610944
sg20
I70000
sg21
g5
sg22
I10
sg23
I13
sg24
I3
sg25
g5
sg26
I221003
sg27
I319941
sg28
I1
sg29
g5
ssS'YEAGER F SCOTT'
p366
(dp367
g3
g5
sg4
g5
sg6
I53947
sg7
I0
sg8
I01
sg9
g5
sg10
S'scott.yeager@enron.com'
p368
sg12
g5
sg13
g5
sg14
g5
sg15
g5
sg16
g5
sg17
I147950
sg18
g5
sg19
I20712013
sg20
g5
sg21
I11884758
sg22
g5
sg23
I0
sg24
g5
sg25
I3576206
sg26
I158403
sg27
I360300
sg28
I1
sg29
I8308552
ssS'HIRKO JOSEPH'
p369
(dp370
g3
g5
sg4
I10259
sg6
I77978
sg7
I0
sg8
I01
sg9
g5
sg10
S'joe.hirko@enron.com'
p371
sg12
g5
sg13
g5
sg14
g5
sg15
g5
sg16
g5
sg17
I2856
sg18
g5
sg19
I61623221
sg20
g5
sg21
I30766064
sg22
g5
sg23
I0
sg24
g5
sg25
g5
sg26
g5
sg27
I91093
sg28
I1
sg29
I30766064
ssS'DIETRICH JANET R'
p372
(dp373
g3
I2572
sg4
g5
sg6
I3475
sg7
I2221
sg8
I00
sg9
g5
sg10
S'janet.dietrich@enron.com'
p374
sg12
I556416
sg13
g5
sg14
I1902
sg15
g5
sg16
I63
sg17
I473
sg18
g5
sg19
I6232086
sg20
I600000
sg21
I1865087
sg22
I305
sg23
I319
sg24
I14
sg25
I315068
sg26
I250100
sg27
I1410464
sg28
I1
sg29
I1550019
ssS'DERRICK JR. JAMES V'
p375
(dp376
g3
I2181
sg4
g5
sg6
I51124
sg7
I1485
sg8
I00
sg9
I-1284000
sg10
S'james.derrick@enron.com'
p377
sg12
I484000
sg13
I-1787380
sg14
I1401
sg15
g5
sg16
I909
sg17
I7482
sg18
g5
sg19
I19991182
sg20
I800000
sg21
I8831913
sg22
I64
sg23
I84
sg24
I20
sg25
I1787380
sg26
I492375
sg27
I550981
sg28
I1
sg29
I8831913
ssS'FREVERT MARK A'
p378
(dp379
g3
I3275
sg4
I6426990
sg6
I86987
sg7
I3227
sg8
I00
sg9
I-3367011
sg10
S'mark.frevert@enron.com'
p380
sg12
I1617011
sg13
g5
sg14
I2979
sg15
I2000000
sg16
I21
sg17
I7427621
sg18
g5
sg19
I46986176
sg20
I2000000
sg21
I14622185
sg22
I242
sg23
I248
sg24
I6
sg25
I4188667
sg26
I1060932
sg27
I17252530
sg28
I1
sg29
I10433518
ssS'PAI LOU L'
p381
(dp382
g3
g5
sg4
g5
sg6
I32047
sg7
I0
sg8
I00
sg9
g5
sg10
S'lou.pai@enron.com'
p383
sg12
g5
sg13
g5
sg14
g5
sg15
g5
sg16
g5
sg17
I1829457
sg18
g5
sg19
I43567359
sg20
I1000000
sg21
I23817930
sg22
g5
sg23
I0
sg24
g5
sg25
I8453763
sg26
I261879
sg27
I3123383
sg28
I1
sg29
I15364167
ssS'BAY FRANKLIN R'
p384
(dp385
g3
g5
sg4
I260455
sg6
I129142
sg7
I0
sg8
I00
sg9
I-201641
sg10
S'frank.bay@enron.com'
p386
sg12
g5
sg13
I-82782
sg14
g5
sg15
g5
sg16
g5
sg17
I69
sg18
g5
sg19
I1530381
sg20
I400000
sg21
I63014
sg22
g5
sg23
I0
sg24
g5
sg25
I145796
sg26
I239671
sg27
I827696
sg28
I1
sg29
g5
ssS'HAYSLETT RODERICK J'
p387
(dp388
g3
I2649
sg4
g5
sg6
g5
sg7
I644
sg8
I00
sg9
g5
sg10
S'rod.hayslett@enron.com'
p389
sg12
g5
sg13
g5
sg14
I571
sg15
g5
sg16
I1061
sg17
g5
sg18
g5
sg19
I346663
sg20
g5
sg21
I346663
sg22
I35
sg23
I73
sg24
I38
sg25
I346663
sg26
g5
sg27
g5
sg28
I1
sg29
g5
ssS'FUGH JOHN L'
p390
(dp391
g3
g5
sg4
I50591
sg6
g5
sg7
I0
sg8
I00
sg9
g5
sg10
g5
sg12
g5
sg13
g5
sg14
g5
sg15
g5
sg16
g5
sg17
g5
sg18
g5
sg19
I403347
sg20
g5
sg21
I176378
sg22
g5
sg23
I0
sg24
g5
sg25
g5
sg26
g5
sg27
I50591
sg28
I1
sg29
I176378
ssS'FALLON JAMES B'
p392
(dp393
g3
I1755
sg4
g5
sg6
I95924
sg7
I1683
sg8
I00
sg9
g5
sg10
S'jim.fallon@enron.com'
p394
sg12
I374347
sg13
g5
sg14
I1604
sg15
g5
sg16
I75
sg17
I401481
sg18
g5
sg19
I10127931
sg20
I2500000
sg21
I2332399
sg22
I42
sg23
I79
sg24
I37
sg25
I1392142
sg26
I304588
sg27
I3676340
sg28
I1
sg29
I940257
ssS'KOENIG MARK E'
p395
(dp396
g3
I2374
sg4
g5
sg6
I127017
sg7
I2339
sg8
I01
sg9
g5
sg10
S'mark.koenig@enron.com'
p397
sg12
I300000
sg13
g5
sg14
I2271
sg15
g5
sg16
I61
sg17
I150458
sg18
g5
sg19
I5489159
sg20
I700000
sg21
I1920055
sg22
I53
sg23
I68
sg24
I15
sg25
I1248318
sg26
I309946
sg27
I1587421
sg28
I1
sg29
I671737
ssS'SAVAGE FRANK'
p398
(dp399
g3
g5
sg4
g5
sg6
g5
sg7
I0
sg8
I00
sg9
I-121284
sg10
g5
sg12
g5
sg13
g5
sg14
g5
sg15
g5
sg16
g5
sg17
g5
sg18
I125034
sg19
I3750
sg20
g5
sg21
g5
sg22
g5
sg23
I0
sg24
g5
sg25
g5
sg26
g5
sg27
I3750
sg28
I1
sg29
g5
ssS'IZZO LAWRENCE L'
p400
(dp401
g3
I496
sg4
g5
sg6
I28093
sg7
I470
sg8
I00
sg9
g5
sg10
S'larry.izzo@enron.com'
p402
sg12
I312500
sg13
g5
sg14
I437
sg15
g5
sg16
I19
sg17
I1553729
sg18
g5
sg19
I10362522
sg20
g5
sg21
I5819980
sg22
I28
sg23
I33
sg24
I5
sg25
I3654808
sg26
I85274
sg27
I1979596
sg28
I1
sg29
I2165172
ssS'TILNEY ELIZABETH A'
p403
(dp404
g3
I460
sg4
g5
sg6
g5
sg7
I400
sg8
I00
sg9
I-575000
sg10
S'elizabeth.tilney@enron.com'
p405
sg12
I275000
sg13
g5
sg14
I379
sg15
g5
sg16
I19
sg17
I152055
sg18
g5
sg19
I2981023
sg20
I300000
sg21
I1168042
sg22
I10
sg23
I21
sg24
I11
sg25
I576792
sg26
I247338
sg27
I399393
sg28
I1
sg29
I591250
ssS'MARTIN AMANDA K'
p406
(dp407
g3
I1522
sg4
I85430
sg6
I8211
sg7
I485
sg8
I00
sg9
g5
sg10
S'a..martin@enron.com'
p408
sg12
I5145434
sg13
g5
sg14
I477
sg15
g5
sg16
I230
sg17
I2818454
sg18
g5
sg19
I18042549
sg20
g5
sg21
I2070306
sg22
I8
sg23
I8
sg24
I0
sg25
g5
sg26
I349487
sg27
I8407016
sg28
I1
sg29
I2070306
ssS'BUY RICHARD B'
p409
(dp410
g3
I3523
sg4
I649584
sg6
g5
sg7
I2560
sg8
I00
sg9
I-694862
sg10
S'rick.buy@enron.com'
p411
sg12
I769862
sg13
g5
sg14
I2333
sg15
g5
sg16
I1053
sg17
I400572
sg18
g5
sg19
I10343393
sg20
I900000
sg21
I3444470
sg22
I156
sg23
I227
sg24
I71
sg25
I901657
sg26
I330546
sg27
I2355702
sg28
I1
sg29
I2542813
ssS'GRAMM WENDY L'
p412
(dp413
g3
g5
sg4
g5
sg6
g5
sg7
I0
sg8
I00
sg9
g5
sg10
g5
sg12
g5
sg13
g5
sg14
g5
sg15
g5
sg16
g5
sg17
g5
sg18
I119292
sg19
I119292
sg20
g5
sg21
g5
sg22
g5
sg23
I0
sg24
g5
sg25
g5
sg26
g5
sg27
I119292
sg28
I1
sg29
g5
ssS'CAUSEY RICHARD A'
p414
(dp415
g3
I1892
sg4
g5
sg6
I30674
sg7
I1655
sg8
I01
sg9
I-235000
sg10
S'richard.causey@enron.com'
p416
sg12
I350000
sg13
g5
sg14
I1585
sg15
g5
sg16
I49
sg17
I307895
sg18
g5
sg19
I6136010
sg20
I1000000
sg21
I2502063
sg22
I58
sg23
I70
sg24
I12
sg25
I2502063
sg26
I415189
sg27
I1868758
sg28
I1
sg29
g5
ssS'TAYLOR MITCHELL S'
p417
(dp418
g3
I533
sg4
I227449
sg6
g5
sg7
I300
sg8
I00
sg9
g5
sg10
S'mitchell.taylor@enron.com'
p419
sg12
g5
sg13
g5
sg14
I300
sg15
g5
sg16
I29
sg17
g5
sg18
g5
sg19
I8884175
sg20
I600000
sg21
I3745048
sg22
I0
sg23
I0
sg24
I0
sg25
I563798
sg26
I265214
sg27
I1092663
sg28
I1
sg29
I3181250
ssS'DONAHUE JR JEFFREY M'
p420
(dp421
g3
I865
sg4
g5
sg6
I96268
sg7
I971
sg8
I00
sg9
I-300000
sg10
S'jeff.donahue@enron.com'
p422
sg12
g5
sg13
g5
sg14
I772
sg15
g5
sg16
I22
sg17
I891
sg18
g5
sg19
I3801269
sg20
I800000
sg21
I1080988
sg22
I188
sg23
I199
sg24
I11
sg25
I315068
sg26
I278601
sg27
I875760
sg28
I1
sg29
I765920
ssS'GLISAN JR BEN F'
p423
(dp424
g3
I873
sg4
g5
sg6
I125978
sg7
I932
sg8
I01
sg9
g5
sg10
S'ben.glisan@enron.com'
p425
sg12
I71023
sg13
g5
sg14
I874
sg15
g5
sg16
I16
sg17
I200308
sg18
g5
sg19
I3381556
sg20
I600000
sg21
I778546
sg22
I52
sg23
I58
sg24
I6
sg25
I393818
sg26
I274975
sg27
I1272284
sg28
I1
sg29
I384728
ss.