(dp0
S'METTS MARK'
p1
(dp2
S'to_messages'
p3
I807
sS'deferral_payments'
p4
S'NaN'
p5
sS'expenses'
p6
I94299
sS'poi_email_reciept_interaction'
p7
I741
sS'poi'
p8
I00
sS'deferred_income'
p9
g5
sS'email_address'
p10
S'mark.metts@enron.com'
p11
sS'long_term_incentive'
p12
g5
sS'restricted_stock_deferred'
p13
g5
sS'shared_receipt_with_poi'
p14
I702
sS'loan_advances'
p15
g5
sS'from_messages'
p16
I29
sS'other'
p17
I1740
sS'from_this_person_to_poi_fraction'
p18
F0.034482758620689655
sS'director_fees'
p19
g5
sS'adj_compensation'
p20
I2612677
sS'bonus'
p21
I600000
sS'total_stock_value'
p22
I585062
sS'from_poi_to_this_person'
p23
I38
sS'poi_email_interaction'
p24
I39
sS'from_this_person_to_poi'
p25
I1
sS'restricted_stock'
p26
I585062
sS'salary'
p27
I365788
sS'total_payments'
p28
I1061827
sS'from_poi_to_this_person_fraction'
p29
F0.04708798017348203
sS'is_director'
p30
I0
sS'exercised_stock_options'
p31
g5
ssS'BAXTER JOHN C'
p32
(dp33
g3
g5
sg4
I1295738
sg6
I11200
sg7
I0
sg8
I00
sg9
I-1386055
sg10
g5
sg12
I1586055
sg13
g5
sg14
g5
sg15
g5
sg16
g5
sg17
I2660303
sg18
I0
sg19
g5
sg20
I25991302
sg21
I1200000
sg22
I10623258
sg23
g5
sg24
I0
sg25
g5
sg26
I3942714
sg27
I267102
sg28
I5634343
sg29
I0
sg30
I0
sg31
I6680544
ssS'ELLIOTT STEVEN'
p34
(dp35
g3
g5
sg4
g5
sg6
I78552
sg7
I0
sg8
I00
sg9
I-400729
sg10
S'steven.elliott@enron.com'
p36
sg12
g5
sg13
g5
sg14
g5
sg15
g5
sg16
g5
sg17
I12961
sg18
I0
sg19
g5
sg20
I12301745
sg21
I350000
sg22
I6678735
sg23
g5
sg24
I0
sg25
g5
sg26
I1788391
sg27
I170941
sg28
I211725
sg29
I0
sg30
I0
sg31
I4890344
ssS'CORDES WILLIAM R'
p37
(dp38
g3
I764
sg4
g5
sg6
g5
sg7
I68
sg8
I00
sg9
g5
sg10
S'bill.cordes@enron.com'
p39
sg12
g5
sg13
g5
sg14
I58
sg15
g5
sg16
I12
sg17
g5
sg18
F0.0
sg19
g5
sg20
I1690035
sg21
g5
sg22
I1038185
sg23
I10
sg24
I10
sg25
I0
sg26
I386335
sg27
g5
sg28
g5
sg29
F0.013089005235602094
sg30
I0
sg31
I651850
ssS'HANNON KEVIN P'
p40
(dp41
g3
I1045
sg4
g5
sg6
I34039
sg7
I1088
sg8
I01
sg9
I-3117011
sg10
S'kevin.hannon@enron.com'
p42
sg12
I1617011
sg13
g5
sg14
I1035
sg15
g5
sg16
I32
sg17
I11350
sg18
F0.65625
sg19
g5
sg20
I15578052
sg21
I1500000
sg22
I6391065
sg23
I32
sg24
I53
sg25
I21
sg26
I853064
sg27
I243293
sg28
I288682
sg29
F0.03062200956937799
sg30
I0
sg31
I5538001
ssS'MORDAUNT KRISTINA M'
p43
(dp44
g3
g5
sg4
g5
sg6
I35018
sg7
I0
sg8
I00
sg9
g5
sg10
S'kristina.mordaunt@enron.com'
p45
sg12
g5
sg13
g5
sg14
g5
sg15
g5
sg16
g5
sg17
I1411
sg18
I0
sg19
g5
sg20
I1429125
sg21
I325000
sg22
I208510
sg23
g5
sg24
I0
sg25
g5
sg26
I208510
sg27
I267093
sg28
I628522
sg29
I0
sg30
I0
sg31
g5
ssS'MEYER ROCKFORD G'
p46
(dp47
g3
I232
sg4
I1848227
sg6
g5
sg7
I22
sg8
I00
sg9
g5
sg10
S'rockford.meyer@enron.com'
p48
sg12
g5
sg13
g5
sg14
I22
sg15
g5
sg16
I28
sg17
g5
sg18
F0.0
sg19
g5
sg20
I3297589
sg21
g5
sg22
I955873
sg23
I0
sg24
I0
sg25
I0
sg26
I462384
sg27
g5
sg28
I1848227
sg29
F0.0
sg30
I0
sg31
I493489
ssS'MCMAHON JEFFREY'
p49
(dp50
g3
I2355
sg4
g5
sg6
I137108
sg7
I2312
sg8
I00
sg9
g5
sg10
S'jeffrey.mcmahon@enron.com'
p51
sg12
I694862
sg13
g5
sg14
I2228
sg15
g5
sg16
I48
sg17
I297353
sg18
F0.5416666666666666
sg19
g5
sg20
I10531990
sg21
I2600000
sg22
I1662855
sg23
I58
sg24
I84
sg25
I26
sg26
I558801
sg27
I370448
sg28
I4099771
sg29
F0.024628450106157114
sg30
I0
sg31
I1104054
ssS'HORTON STANLEY C'
p52
(dp53
g3
I2350
sg4
I3131860
sg6
g5
sg7
I1133
sg8
I00
sg9
g5
sg10
S'stanley.horton@enron.com'
p54
sg12
g5
sg13
g5
sg14
I1074
sg15
g5
sg16
I1073
sg17
g5
sg18
F0.013979496738117428
sg19
g5
sg20
I15599077
sg21
g5
sg22
I7256648
sg23
I44
sg24
I59
sg25
I15
sg26
I2046079
sg27
g5
sg28
I3131860
sg29
F0.01872340425531915
sg30
I0
sg31
I5210569
ssS'PIPER GREGORY F'
p55
(dp56
g3
I1238
sg4
I1130036
sg6
I43057
sg7
I851
sg8
I00
sg9
I-33333
sg10
S'greg.piper@enron.com'
p57
sg12
g5
sg13
I-409554
sg14
I742
sg15
g5
sg16
I222
sg17
I778
sg18
F0.21621621621621623
sg19
g5
sg20
I4095300
sg21
I400000
sg22
I880290
sg23
I61
sg24
I109
sg25
I48
sg26
I409554
sg27
I197091
sg28
I1737629
sg29
F0.049273021001615507
sg30
I0
sg31
I880290
ssS'HUMPHREY GENE E'
p58
(dp59
g3
I128
sg4
I2964506
sg6
I4994
sg7
I146
sg8
I00
sg9
g5
sg10
S'gene.humphrey@enron.com'
p60
sg12
g5
sg13
g5
sg14
I119
sg15
g5
sg16
I17
sg17
g5
sg18
F1.0
sg19
g5
sg20
I7796484
sg21
g5
sg22
I2282768
sg23
I10
sg24
I27
sg25
I17
sg26
g5
sg27
I130724
sg28
I3100224
sg29
F0.078125
sg30
I0
sg31
I2282768
ssS'UMANOFF ADAM S'
p61
(dp62
g3
I111
sg4
g5
sg6
I53122
sg7
I53
sg8
I00
sg9
g5
sg10
S'adam.umanoff@enron.com'
p63
sg12
g5
sg13
g5
sg14
I41
sg15
g5
sg16
I18
sg17
g5
sg18
F0.0
sg19
g5
sg20
I2207800
sg21
I788750
sg22
g5
sg23
I12
sg24
I12
sg25
I0
sg26
g5
sg27
I288589
sg28
I1130461
sg29
F0.10810810810810811
sg30
I0
sg31
g5
ssS'BLACHMAN JEREMY M'
p64
(dp65
g3
I2475
sg4
g5
sg6
I84208
sg7
I2353
sg8
I00
sg9
g5
sg10
S'jeremy.blachman@enron.com'
p66
sg12
I831809
sg13
g5
sg14
I2326
sg15
g5
sg16
I14
sg17
I272
sg18
F0.14285714285714285
sg19
g5
sg20
I5664857
sg21
I850000
sg22
I954354
sg23
I25
sg24
I27
sg25
I2
sg26
I189041
sg27
I248546
sg28
I2014835
sg29
F0.010101010101010102
sg30
I0
sg31
I765313
ssS'SUNDE MARTIN'
p67
(dp68
g3
I2647
sg4
g5
sg6
g5
sg7
I2615
sg8
I00
sg9
g5
sg10
S'marty.sunde@enron.com'
p69
sg12
I476451
sg13
g5
sg14
I2565
sg15
g5
sg16
I38
sg17
I111122
sg18
F0.34210526315789475
sg19
g5
sg20
I3677916
sg21
I700000
sg22
I698920
sg23
I37
sg24
I50
sg25
I13
sg26
I698920
sg27
I257486
sg28
I1545059
sg29
F0.013978088401964487
sg30
I0
sg31
g5
ssS'GIBBS DANA R'
p70
(dp71
g3
I169
sg4
I504610
sg6
g5
sg7
I23
sg8
I00
sg9
g5
sg10
S'dana.gibbs@enron.com'
p72
sg12
I461912
sg13
g5
sg14
I23
sg15
g5
sg16
I12
sg17
g5
sg18
F0.0
sg19
g5
sg20
I5864984
sg21
g5
sg22
I2218275
sg23
I0
sg24
I0
sg25
I0
sg26
g5
sg27
g5
sg28
I966522
sg29
F0.0
sg30
I0
sg31
I2218275
ssS'LOWRY CHARLES P'
p73
(dp74
g3
g5
sg4
g5
sg6
g5
sg7
I0
sg8
I00
sg9
g5
sg10
g5
sg12
g5
sg13
I-153686
sg14
g5
sg15
g5
sg16
g5
sg17
g5
sg18
I0
sg19
g5
sg20
I744410
sg21
g5
sg22
I372205
sg23
g5
sg24
I0
sg25
g5
sg26
I153686
sg27
g5
sg28
g5
sg29
I0
sg30
I0
sg31
I372205
ssS'COLWELL WESLEY'
p75
(dp76
g3
I1758
sg4
I27610
sg6
I16514
sg7
I1383
sg8
I01
sg9
I-144062
sg10
S'wes.colwell@enron.com'
p77
sg12
g5
sg13
g5
sg14
I1132
sg15
g5
sg16
I40
sg17
I101740
sg18
F0.275
sg19
g5
sg20
I3677128
sg21
I1200000
sg22
I698242
sg23
I240
sg24
I251
sg25
I11
sg26
I698242
sg27
I288542
sg28
I1490344
sg29
F0.13651877133105803
sg30
I0
sg31
g5
ssS'MULLER MARK S'
p78
(dp79
g3
I136
sg4
I842924
sg6
g5
sg7
I126
sg8
I00
sg9
I-719000
sg10
S's..muller@enron.com'
p80
sg12
I1725545
sg13
g5
sg14
I114
sg15
g5
sg16
I16
sg17
I947
sg18
F0.0
sg19
g5
sg20
I8752437
sg21
I1100000
sg22
I1416848
sg23
I12
sg24
I12
sg25
I0
sg26
I360528
sg27
I251654
sg28
I3202070
sg29
F0.08823529411764706
sg30
I0
sg31
I1056320
ssS'JACKSON CHARLENE R'
p81
(dp82
g3
I258
sg4
g5
sg6
I10181
sg7
I161
sg8
I00
sg9
g5
sg10
S'charlene.jackson@enron.com'
p83
sg12
g5
sg13
g5
sg14
I117
sg15
g5
sg16
I56
sg17
I2435
sg18
F0.3392857142857143
sg19
g5
sg20
I2000530
sg21
I250000
sg22
I725735
sg23
I25
sg24
I44
sg25
I19
sg26
I540672
sg27
I288558
sg28
I551174
sg29
F0.09689922480620156
sg30
I0
sg31
I185063
ssS'WESTFAHL RICHARD K'
p84
(dp85
g3
g5
sg4
g5
sg6
I51870
sg7
I0
sg8
I00
sg9
I-10800
sg10
S'dick.westfahl@enron.com'
p86
sg12
I256191
sg13
g5
sg14
g5
sg15
g5
sg16
g5
sg17
I401130
sg18
I0
sg19
g5
sg20
I1467000
sg21
g5
sg22
I384930
sg23
g5
sg24
I0
sg25
g5
sg26
I384930
sg27
I63744
sg28
I762135
sg29
I0
sg30
I0
sg31
g5
ssS'WALTERS GARETH W'
p87
(dp88
g3
g5
sg4
I53625
sg6
I33785
sg7
I0
sg8
I00
sg9
g5
sg10
g5
sg12
g5
sg13
g5
sg14
g5
sg15
g5
sg16
g5
sg17
g5
sg18
I0
sg19
g5
sg20
I2148068
sg21
g5
sg22
I1030329
sg23
g5
sg24
I0
sg25
g5
sg26
g5
sg27
g5
sg28
I87410
sg29
I0
sg30
I0
sg31
I1030329
ssS'WALLS JR ROBERT H'
p89
(dp90
g3
I671
sg4
g5
sg6
I50936
sg7
I232
sg8
I00
sg9
g5
sg10
S'rob.walls@enron.com'
p91
sg12
I540751
sg13
g5
sg14
I215
sg15
g5
sg16
I146
sg17
I2
sg18
F0.0
sg19
g5
sg20
I13792163
sg21
I850000
sg22
I5898997
sg23
I17
sg24
I17
sg25
I0
sg26
I1552453
sg27
I357091
sg28
I1798780
sg29
F0.02533532041728763
sg30
I0
sg31
I4346544
ssS'KITCHEN LOUISE'
p92
(dp93
g3
I8305
sg4
g5
sg6
I5774
sg7
I4114
sg8
I00
sg9
g5
sg10
S'louise.kitchen@enron.com'
p94
sg12
g5
sg13
g5
sg14
I3669
sg15
g5
sg16
I1728
sg17
I93925
sg18
F0.11226851851851852
sg19
g5
sg20
I7470768
sg21
I3100000
sg22
I547143
sg23
I251
sg24
I445
sg25
I194
sg26
I466101
sg27
I271442
sg28
I3471141
sg29
F0.030222757375075255
sg30
I0
sg31
I81042
ssS'CHAN RONNIE'
p95
(dp96
g3
g5
sg4
g5
sg6
g5
sg7
I0
sg8
I00
sg9
I-98784
sg10
g5
sg12
g5
sg13
I-32460
sg14
g5
sg15
g5
sg16
g5
sg17
g5
sg18
I0
sg19
I98784
sg20
I0
sg21
g5
sg22
g5
sg23
g5
sg24
I0
sg25
g5
sg26
I32460
sg27
g5
sg28
g5
sg29
I0
sg30
I1
sg31
g5
ssS'BELFER ROBERT'
p97
(dp98
g3
g5
sg4
I-102500
sg6
g5
sg7
I0
sg8
I00
sg9
g5
sg10
g5
sg12
g5
sg13
I44093
sg14
g5
sg15
g5
sg16
g5
sg17
g5
sg18
I0
sg19
I3285
sg20
I61692
sg21
g5
sg22
I-44093
sg23
g5
sg24
I0
sg25
g5
sg26
g5
sg27
g5
sg28
I102500
sg29
I0
sg30
I1
sg31
I3285
ssS'SHANKMAN JEFFREY A'
p99
(dp100
g3
I3221
sg4
g5
sg6
I178979
sg7
I1907
sg8
I00
sg9
g5
sg10
S'jeffrey.shankman@enron.com'
p101
sg12
I554422
sg13
g5
sg14
I1730
sg15
g5
sg16
I2681
sg17
I1191
sg18
F0.030958597538232
sg19
g5
sg20
I9411167
sg21
I2000000
sg22
I2072035
sg23
I94
sg24
I177
sg25
I83
sg26
I630137
sg27
I304110
sg28
I3038702
sg29
F0.029183483390251473
sg30
I0
sg31
I1441898
ssS'WODRASKA JOHN'
p102
(dp103
g3
g5
sg4
g5
sg6
g5
sg7
I0
sg8
I00
sg9
g5
sg10
S'john.wodraska@enron.com'
p104
sg12
g5
sg13
g5
sg14
g5
sg15
g5
sg16
g5
sg17
I189583
sg18
I0
sg19
g5
sg20
I189583
sg21
g5
sg22
g5
sg23
g5
sg24
I0
sg25
g5
sg26
g5
sg27
g5
sg28
I189583
sg29
I0
sg30
I0
sg31
g5
ssS'BERGSIEKER RICHARD P'
p105
(dp106
g3
I383
sg4
g5
sg6
I59175
sg7
I237
sg8
I00
sg9
I-485813
sg10
S'rick.bergsieker@enron.com'
p107
sg12
I180250
sg13
g5
sg14
I233
sg15
g5
sg16
I59
sg17
I427316
sg18
F0.0
sg19
g5
sg20
I1896271
sg21
I250000
sg22
I659249
sg23
I4
sg24
I4
sg25
I0
sg26
I659249
sg27
I187922
sg28
I618850
sg29
F0.010443864229765013
sg30
I0
sg31
g5
ssS'URQUHART JOHN A'
p108
(dp109
g3
g5
sg4
g5
sg6
I228656
sg7
I0
sg8
I00
sg9
I-36666
sg10
g5
sg12
g5
sg13
g5
sg14
g5
sg15
g5
sg16
g5
sg17
g5
sg18
I0
sg19
I36666
sg20
I228656
sg21
g5
sg22
g5
sg23
g5
sg24
I0
sg25
g5
sg26
g5
sg27
g5
sg28
I228656
sg29
I0
sg30
I1
sg31
g5
ssS'BIBI PHILIPPE A'
p110
(dp111
g3
I1607
sg4
g5
sg6
I38559
sg7
I1367
sg8
I00
sg9
g5
sg10
S'philippe.bibi@enron.com'
p112
sg12
I369721
sg13
g5
sg14
I1336
sg15
g5
sg16
I40
sg17
I425688
sg18
F0.2
sg19
g5
sg20
I6940489
sg21
I1000000
sg22
I1843816
sg23
I23
sg24
I31
sg25
I8
sg26
I378082
sg27
I213625
sg28
I2047593
sg29
F0.01431238332296204
sg30
I0
sg31
I1465734
ssS'RIEKER PAULA H'
p113
(dp114
g3
I1328
sg4
I214678
sg6
I33271
sg7
I1341
sg8
I01
sg9
I-100000
sg10
S'paula.rieker@enron.com'
p115
sg12
g5
sg13
g5
sg14
I1258
sg15
g5
sg16
I82
sg17
I1950
sg18
F0.5853658536585366
sg19
g5
sg20
I5602426
sg21
I700000
sg22
I1918887
sg23
I35
sg24
I83
sg25
I48
sg26
I283649
sg27
I249201
sg28
I1099100
sg29
F0.02635542168674699
sg30
I0
sg31
I1635238
ssS'WHALEY DAVID A'
p116
(dp117
g3
g5
sg4
g5
sg6
g5
sg7
I0
sg8
I00
sg9
g5
sg10
g5
sg12
g5
sg13
g5
sg14
g5
sg15
g5
sg16
g5
sg17
g5
sg18
I0
sg19
g5
sg20
I197436
sg21
g5
sg22
I98718
sg23
g5
sg24
I0
sg25
g5
sg26
g5
sg27
g5
sg28
g5
sg29
I0
sg30
I0
sg31
I98718
ssS'BECK SALLY W'
p118
(dp119
g3
I7315
sg4
g5
sg6
I37172
sg7
I3169
sg8
I00
sg9
g5
sg10
S'sally.beck@enron.com'
p120
sg12
g5
sg13
g5
sg14
I2639
sg15
g5
sg16
I4343
sg17
I566
sg18
F0.08887865530739121
sg19
g5
sg20
I2026425
sg21
I700000
sg22
I126027
sg23
I144
sg24
I530
sg25
I386
sg26
I126027
sg27
I231330
sg28
I969068
sg29
F0.01968557758031442
sg30
I0
sg31
g5
ssS'HAUG DAVID L'
p121
(dp122
g3
I573
sg4
g5
sg6
I475
sg7
I482
sg8
I00
sg9
g5
sg10
S'david.haug@enron.com'
p123
sg12
g5
sg13
g5
sg14
I471
sg15
g5
sg16
I19
sg17
g5
sg18
F0.3684210526315789
sg19
g5
sg20
I2217774
sg21
g5
sg22
I2217299
sg23
I4
sg24
I11
sg25
I7
sg26
I2217299
sg27
g5
sg28
I475
sg29
F0.006980802792321117
sg30
I0
sg31
g5
ssS'ECHOLS JOHN B'
p124
(dp125
g3
g5
sg4
g5
sg6
I21530
sg7
I0
sg8
I00
sg9
g5
sg10
S'john.echols@enron.com'
p126
sg12
I2234774
sg13
g5
sg14
g5
sg15
g5
sg16
g5
sg17
I53775
sg18
I0
sg19
g5
sg20
I6919722
sg21
I200000
sg22
I1008941
sg23
g5
sg24
I0
sg25
g5
sg26
I407503
sg27
I182245
sg28
I2692324
sg29
I0
sg30
I0
sg31
I601438
ssS'MENDELSOHN JOHN'
p127
(dp128
g3
g5
sg4
g5
sg6
I148
sg7
I0
sg8
I00
sg9
I-103750
sg10
g5
sg12
g5
sg13
g5
sg14
g5
sg15
g5
sg16
g5
sg17
g5
sg18
I0
sg19
I103750
sg20
I148
sg21
g5
sg22
g5
sg23
g5
sg24
I0
sg25
g5
sg26
g5
sg27
g5
sg28
I148
sg29
I0
sg30
I1
sg31
g5
ssS'HICKERSON GARY J'
p129
(dp130
g3
I1320
sg4
g5
sg6
I98849
sg7
I941
sg8
I00
sg9
g5
sg10
S'gary.hickerson@enron.com'
p131
sg12
I69223
sg13
g5
sg14
I900
sg15
g5
sg16
I27
sg17
I1936
sg18
F0.037037037037037035
sg19
g5
sg20
I4503903
sg21
I1700000
sg22
I441096
sg23
I40
sg24
I41
sg25
I1
sg26
I441096
sg27
I211788
sg28
I2081796
sg29
F0.030303030303030304
sg30
I0
sg31
g5
ssS'CLINE KENNETH W'
p132
(dp133
g3
g5
sg4
g5
sg6
g5
sg7
I0
sg8
I00
sg9
g5
sg10
g5
sg12
g5
sg13
I-472568
sg14
g5
sg15
g5
sg16
g5
sg17
g5
sg18
I0
sg19
g5
sg20
I189518
sg21
g5
sg22
I189518
sg23
g5
sg24
I0
sg25
g5
sg26
I662086
sg27
g5
sg28
g5
sg29
I0
sg30
I0
sg31
g5
ssS'LEWIS RICHARD'
p134
(dp135
g3
I952
sg4
g5
sg6
g5
sg7
I749
sg8
I00
sg9
g5
sg10
S'richard.lewis@enron.com'
p136
sg12
g5
sg13
g5
sg14
I739
sg15
g5
sg16
I26
sg17
g5
sg18
F0.0
sg19
g5
sg20
I1700954
sg21
g5
sg22
I850477
sg23
I10
sg24
I10
sg25
I0
sg26
g5
sg27
g5
sg28
g5
sg29
F0.01050420168067227
sg30
I0
sg31
I850477
ssS'HAYES ROBERT E'
p137
(dp138
g3
I504
sg4
I7961
sg6
g5
sg7
I66
sg8
I00
sg9
g5
sg10
S'robert.hayes@enron.com'
p139
sg12
g5
sg13
g5
sg14
I50
sg15
g5
sg16
I12
sg17
g5
sg18
F0.0
sg19
g5
sg20
I159379
sg21
g5
sg22
I151418
sg23
I16
sg24
I16
sg25
I0
sg26
I151418
sg27
g5
sg28
I7961
sg29
F0.031746031746031744
sg30
I0
sg31
g5
ssS'MCCARTY DANNY J'
p140
(dp141
g3
I1433
sg4
g5
sg6
g5
sg7
I535
sg8
I00
sg9
g5
sg10
S'danny.mccarty@enron.com'
p142
sg12
g5
sg13
g5
sg14
I508
sg15
g5
sg16
I215
sg17
g5
sg18
F0.009302325581395349
sg19
g5
sg20
I1423306
sg21
g5
sg22
I758931
sg23
I25
sg24
I27
sg25
I2
sg26
I94556
sg27
g5
sg28
g5
sg29
F0.017445917655268667
sg30
I0
sg31
I664375
ssS'KOPPER MICHAEL J'
p143
(dp144
g3
g5
sg4
g5
sg6
I118134
sg7
I0
sg8
I01
sg9
g5
sg10
S'michael.kopper@enron.com'
p145
sg12
I602671
sg13
g5
sg14
g5
sg15
g5
sg16
g5
sg17
I907502
sg18
I0
sg19
g5
sg20
I5264620
sg21
I800000
sg22
I985032
sg23
g5
sg24
I0
sg25
g5
sg26
I985032
sg27
I224305
sg28
I2652612
sg29
I0
sg30
I0
sg31
g5
ssS'LEFF DANIEL P'
p146
(dp147
g3
I2822
sg4
g5
sg6
g5
sg7
I2753
sg8
I00
sg9
g5
sg10
S'dan.leff@enron.com'
p148
sg12
I1387399
sg13
g5
sg14
I2672
sg15
g5
sg16
I63
sg17
I3083
sg18
F0.2222222222222222
sg19
g5
sg20
I5685901
sg21
I1000000
sg22
I360528
sg23
I67
sg24
I81
sg25
I14
sg26
I360528
sg27
I273746
sg28
I2664228
sg29
F0.02374202693125443
sg30
I0
sg31
g5
ssS'LAVORATO JOHN J'
p149
(dp150
g3
I7259
sg4
g5
sg6
I49537
sg7
I4901
sg8
I00
sg9
g5
sg10
S'john.lavorato@enron.com'
p151
sg12
I2035380
sg13
g5
sg14
I3962
sg15
g5
sg16
I2585
sg17
I1552
sg18
F0.15899419729206962
sg19
g5
sg20
I30126564
sg21
I8000000
sg22
I5167144
sg23
I528
sg24
I939
sg25
I411
sg26
I1008149
sg27
I339288
sg28
I10425757
sg29
F0.07273729163796666
sg30
I0
sg31
I4158995
ssS'BERBERIAN DAVID'
p152
(dp153
g3
g5
sg4
g5
sg6
I11892
sg7
I0
sg8
I00
sg9
g5
sg10
S'david.berberian@enron.com'
p154
sg12
g5
sg13
g5
sg14
g5
sg15
g5
sg16
g5
sg17
g5
sg18
I0
sg19
g5
sg20
I4563068
sg21
g5
sg22
I2493616
sg23
g5
sg24
I0
sg25
g5
sg26
I869220
sg27
I216582
sg28
I228474
sg29
I0
sg30
I0
sg31
I1624396
ssS'DETMERING TIMOTHY J'
p155
(dp156
g3
g5
sg4
I875307
sg6
I52255
sg7
I0
sg8
I00
sg9
I-775241
sg10
S'timothy.detmering@enron.com'
p157
sg12
I415657
sg13
I-315068
sg14
g5
sg15
g5
sg16
g5
sg17
I1105
sg18
I0
sg19
g5
sg20
I6311470
sg21
I425000
sg22
I2027865
sg23
g5
sg24
I0
sg25
g5
sg26
I315068
sg27
I210500
sg28
I1204583
sg29
I0
sg30
I0
sg31
I2027865
ssS'WAKEHAM JOHN'
p158
(dp159
g3
g5
sg4
g5
sg6
I103773
sg7
I0
sg8
I00
sg9
g5
sg10
g5
sg12
g5
sg13
g5
sg14
g5
sg15
g5
sg16
g5
sg17
g5
sg18
I0
sg19
I109298
sg20
I213071
sg21
g5
sg22
g5
sg23
g5
sg24
I0
sg25
g5
sg26
g5
sg27
g5
sg28
I213071
sg29
I0
sg30
I1
sg31
g5
ssS'POWERS WILLIAM'
p160
(dp161
g3
I653
sg4
g5
sg6
g5
sg7
I12
sg8
I00
sg9
I-17500
sg10
S'ken.powers@enron.com'
p162
sg12
g5
sg13
g5
sg14
I12
sg15
g5
sg16
I26
sg17
g5
sg18
F0.0
sg19
I17500
sg20
I0
sg21
g5
sg22
g5
sg23
I0
sg24
I0
sg25
I0
sg26
g5
sg27
g5
sg28
g5
sg29
F0.0
sg30
I1
sg31
g5
ssS'GOLD JOSEPH'
p163
(dp164
g3
g5
sg4
g5
sg6
g5
sg7
I0
sg8
I00
sg9
g5
sg10
S'joe.gold@enron.com'
p165
sg12
I304805
sg13
g5
sg14
g5
sg15
g5
sg16
g5
sg17
I819288
sg18
I0
sg19
g5
sg20
I4788784
sg21
I750000
sg22
I877611
sg23
g5
sg24
I0
sg25
g5
sg26
I441096
sg27
I272880
sg28
I2146973
sg29
I0
sg30
I0
sg31
I436515
ssS'BANNANTINE JAMES M'
p166
(dp167
g3
I566
sg4
g5
sg6
I56301
sg7
I504
sg8
I00
sg9
I-5104
sg10
S'james.bannantine@enron.com'
p168
sg12
g5
sg13
I-560222
sg14
I465
sg15
g5
sg16
I29
sg17
I864523
sg18
F0.0
sg19
g5
sg20
I10206318
sg21
g5
sg22
I5243487
sg23
I39
sg24
I39
sg25
I0
sg26
I1757552
sg27
I477
sg28
I916197
sg29
F0.06890459363957598
sg30
I0
sg31
I4046157
ssS'DUNCAN JOHN H'
p169
(dp170
g3
g5
sg4
g5
sg6
g5
sg7
I0
sg8
I00
sg9
I-25000
sg10
g5
sg12
g5
sg13
g5
sg14
g5
sg15
g5
sg16
g5
sg17
g5
sg18
I0
sg19
I102492
sg20
I820992
sg21
g5
sg22
I371750
sg23
g5
sg24
I0
sg25
g5
sg26
g5
sg27
g5
sg28
I77492
sg29
I0
sg30
I1
sg31
I371750
ssS'SHAPIRO RICHARD S'
p171
(dp172
g3
I15149
sg4
g5
sg6
I137767
sg7
I4666
sg8
I00
sg9
g5
sg10
S'richard.shapiro@enron.com'
p173
sg12
g5
sg13
g5
sg14
I4527
sg15
g5
sg16
I1215
sg17
I705
sg18
F0.053497942386831275
sg19
g5
sg20
I3571462
sg21
I650000
sg22
I987001
sg23
I74
sg24
I139
sg25
I65
sg26
I379164
sg27
I269076
sg28
I1057548
sg29
F0.0048848108786058485
sg30
I0
sg31
I607837
ssS'SHERRIFF JOHN R'
p174
(dp175
g3
I3187
sg4
g5
sg6
g5
sg7
I2154
sg8
I00
sg9
g5
sg10
S'john.sherriff@enron.com'
p176
sg12
I554422
sg13
g5
sg14
I2103
sg15
g5
sg16
I92
sg17
I1852186
sg18
F0.25
sg19
g5
sg20
I11783130
sg21
I1500000
sg22
I3128982
sg23
I28
sg24
I51
sg25
I23
sg26
I1293424
sg27
I428780
sg28
I4335388
sg29
F0.008785691873235017
sg30
I0
sg31
I1835558
ssS'SHELBY REX'
p177
(dp178
g3
I225
sg4
g5
sg6
I22884
sg7
I118
sg8
I01
sg9
I-4167
sg10
S'rex.shelby@enron.com'
p179
sg12
g5
sg13
g5
sg14
I91
sg15
g5
sg16
I39
sg17
I1573324
sg18
F0.358974358974359
sg19
g5
sg20
I6533741
sg21
I200000
sg22
I2493616
sg23
I13
sg24
I27
sg25
I14
sg26
I869220
sg27
I211844
sg28
I2003885
sg29
F0.057777777777777775
sg30
I0
sg31
I1624396
ssS'LEMAISTRE CHARLES'
p180
(dp181
g3
g5
sg4
g5
sg6
g5
sg7
I0
sg8
I00
sg9
I-25000
sg10
g5
sg12
g5
sg13
g5
sg14
g5
sg15
g5
sg16
g5
sg17
g5
sg18
I0
sg19
I112492
sg20
I913248
sg21
g5
sg22
I412878
sg23
g5
sg24
I0
sg25
g5
sg26
g5
sg27
g5
sg28
I87492
sg29
I0
sg30
I1
sg31
I412878
ssS'DEFFNER JOSEPH M'
p182
(dp183
g3
I714
sg4
g5
sg6
I41626
sg7
I671
sg8
I00
sg9
g5
sg10
S'joseph.deffner@enron.com'
p184
sg12
I335349
sg13
g5
sg14
I552
sg15
g5
sg16
I74
sg17
I25553
sg18
F0.05405405405405406
sg19
g5
sg20
I2526708
sg21
I600000
sg22
I159211
sg23
I115
sg24
I119
sg25
I4
sg26
I141833
sg27
I206121
sg28
I1208649
sg29
F0.16106442577030813
sg30
I0
sg31
I17378
ssS'KISHKILL JOSEPH G'
p185
(dp186
g3
g5
sg4
g5
sg6
I116335
sg7
I0
sg8
I00
sg9
I-51042
sg10
S'joe.kishkill@enron.com'
p187
sg12
g5
sg13
g5
sg14
g5
sg15
g5
sg16
g5
sg17
I465357
sg18
I0
sg19
g5
sg20
I1913488
sg21
g5
sg22
I1034346
sg23
g5
sg24
I0
sg25
g5
sg26
I1034346
sg27
I174246
sg28
I704896
sg29
I0
sg30
I0
sg31
g5
ssS'WHALLEY LAWRENCE G'
p188
(dp189
g3
I6019
sg4
g5
sg6
I57838
sg7
I4130
sg8
I00
sg9
g5
sg10
S'greg.whalley@enron.com'
p190
sg12
I808346
sg13
g5
sg14
I3920
sg15
g5
sg16
I556
sg17
I301026
sg18
F0.04316546762589928
sg19
g5
sg20
I18358381
sg21
I3000000
sg22
I6079137
sg23
I186
sg24
I210
sg25
I24
sg26
I2796177
sg27
I510364
sg28
I4677574
sg29
F0.03090214321315833
sg30
I0
sg31
I3282960
ssS'MCCONNELL MICHAEL S'
p191
(dp192
g3
I3329
sg4
g5
sg6
I81364
sg7
I2475
sg8
I00
sg9
g5
sg10
S'mike.mcconnell@enron.com'
p193
sg12
I554422
sg13
g5
sg14
I2189
sg15
g5
sg16
I2742
sg17
I540
sg18
F0.07075127644055434
sg19
g5
sg20
I8845113
sg21
I1100000
sg22
I3101279
sg23
I92
sg24
I286
sg25
I194
sg26
I1478269
sg27
I365038
sg28
I2101364
sg29
F0.02763592670471613
sg30
I0
sg31
I1623010
ssS'PIRO JIM'
p194
(dp195
g3
I58
sg4
g5
sg6
g5
sg7
I4
sg8
I00
sg9
g5
sg10
S'jim.piro@enron.com'
p196
sg12
g5
sg13
g5
sg14
I3
sg15
g5
sg16
I16
sg17
g5
sg18
F0.0625
sg19
g5
sg20
I47304
sg21
g5
sg22
I47304
sg23
I0
sg24
I1
sg25
I1
sg26
I47304
sg27
g5
sg28
g5
sg29
F0.0
sg30
I0
sg31
g5
ssS'DELAINEY DAVID W'
p197
(dp198
g3
I3093
sg4
g5
sg6
I86174
sg7
I2772
sg8
I01
sg9
g5
sg10
S'david.delainey@enron.com'
p199
sg12
I1294981
sg13
g5
sg14
I2097
sg15
g5
sg16
I3069
sg17
I1661
sg18
F0.198435972629521
sg19
g5
sg20
I15313497
sg21
I3000000
sg22
I3614261
sg23
I66
sg24
I675
sg25
I609
sg26
I1323148
sg27
I365163
sg28
I4747979
sg29
F0.02133850630455868
sg30
I0
sg31
I2291113
ssS'SULLIVAN-SHAKLOVITZ COLLEEN'
p200
(dp201
g3
g5
sg4
I181993
sg6
g5
sg7
I0
sg8
I00
sg9
g5
sg10
g5
sg12
I554422
sg13
g5
sg14
g5
sg15
g5
sg16
g5
sg17
I162
sg18
I0
sg19
g5
sg20
I4541307
sg21
I100000
sg22
I1362375
sg23
g5
sg24
I0
sg25
g5
sg26
g5
sg27
I162779
sg28
I999356
sg29
I0
sg30
I0
sg31
I1362375
ssS'WROBEL BRUCE'
p202
(dp203
g3
g5
sg4
g5
sg6
g5
sg7
I0
sg8
I00
sg9
g5
sg10
g5
sg12
g5
sg13
g5
sg14
g5
sg15
g5
sg16
g5
sg17
g5
sg18
I0
sg19
g5
sg20
I278260
sg21
g5
sg22
I139130
sg23
g5
sg24
I0
sg25
g5
sg26
g5
sg27
g5
sg28
g5
sg29
I0
sg30
I0
sg31
I139130
ssS'LINDHOLM TOD A'
p204
(dp205
g3
g5
sg4
I204075
sg6
I57727
sg7
I0
sg8
I00
sg9
g5
sg10
S'tod.lindholm@enron.com'
p206
sg12
I175000
sg13
g5
sg14
g5
sg15
g5
sg16
g5
sg17
I2630
sg18
I0
sg19
g5
sg20
I7100915
sg21
I200000
sg22
I3064208
sg23
g5
sg24
I0
sg25
g5
sg26
I514847
sg27
I236457
sg28
I875889
sg29
I0
sg30
I0
sg31
I2549361
ssS'MEYER JEROME J'
p207
(dp208
g3
g5
sg4
g5
sg6
I2151
sg7
I0
sg8
I00
sg9
I-38346
sg10
g5
sg12
g5
sg13
g5
sg14
g5
sg15
g5
sg16
g5
sg17
g5
sg18
I0
sg19
I38346
sg20
I2151
sg21
g5
sg22
g5
sg23
g5
sg24
I0
sg25
g5
sg26
g5
sg27
g5
sg28
I2151
sg29
I0
sg30
I1
sg31
g5
ssS'LAY KENNETH L'
p209
(dp210
g3
I4273
sg4
I202911
sg6
I99832
sg7
I2550
sg8
I01
sg9
I-300000
sg10
S'kenneth.lay@enron.com'
p211
sg12
I3600000
sg13
g5
sg14
I2411
sg15
I81525000
sg16
I36
sg17
I10359729
sg18
F0.4444444444444444
sg19
g5
sg20
I198690576
sg21
I7000000
sg22
I49110078
sg23
I123
sg24
I139
sg25
I16
sg26
I14761694
sg27
I1072321
sg28
I103559793
sg29
F0.028785396676807865
sg30
I0
sg31
I34348384
ssS'BUTTS ROBERT H'
p212
(dp213
g3
g5
sg4
g5
sg6
I9410
sg7
I0
sg8
I00
sg9
I-75000
sg10
S'bob.butts@enron.com'
p214
sg12
I175000
sg13
g5
sg14
g5
sg15
g5
sg16
g5
sg17
I150656
sg18
I0
sg19
g5
sg20
I2875717
sg21
I750000
sg22
I417619
sg23
g5
sg24
I0
sg25
g5
sg26
I417619
sg27
I261516
sg28
I1271582
sg29
I0
sg30
I0
sg31
g5
ssS'OLSON CINDY K'
p215
(dp216
g3
I1184
sg4
I77716
sg6
I63791
sg7
I891
sg8
I00
sg9
g5
sg10
S'cindy.olson@enron.com'
p217
sg12
I100000
sg13
g5
sg14
I856
sg15
g5
sg16
I52
sg17
I972
sg18
F0.28846153846153844
sg19
g5
sg20
I6744432
sg21
I750000
sg22
I2606763
sg23
I20
sg24
I35
sg25
I15
sg26
I969729
sg27
I329078
sg28
I1321557
sg29
F0.016891891891891893
sg30
I0
sg31
I1637034
ssS'MCDONALD REBECCA'
p218
(dp219
g3
I894
sg4
g5
sg6
g5
sg7
I775
sg8
I00
sg9
g5
sg10
S'rebecca.mcdonald@enron.com'
p220
sg12
g5
sg13
g5
sg14
I720
sg15
g5
sg16
I13
sg17
g5
sg18
F0.07692307692307693
sg19
g5
sg20
I2448667
sg21
g5
sg22
I1691366
sg23
I54
sg24
I55
sg25
I1
sg26
I934065
sg27
g5
sg28
g5
sg29
F0.06040268456375839
sg30
I0
sg31
I757301
ssS'CUMBERLAND MICHAEL S'
p221
(dp222
g3
g5
sg4
g5
sg6
I22344
sg7
I0
sg8
I00
sg9
g5
sg10
g5
sg12
I275000
sg13
g5
sg14
g5
sg15
g5
sg16
g5
sg17
I713
sg18
I0
sg19
g5
sg20
I1800795
sg21
I325000
sg22
I207940
sg23
g5
sg24
I0
sg25
g5
sg26
I207940
sg27
I184899
sg28
I807956
sg29
I0
sg30
I0
sg31
g5
ssS'GAHN ROBERT S'
p223
(dp224
g3
g5
sg4
I73122
sg6
I50080
sg7
I0
sg8
I00
sg9
I-1042
sg10
g5
sg12
g5
sg13
g5
sg14
g5
sg15
g5
sg16
g5
sg17
I76547
sg18
I0
sg19
g5
sg20
I2004307
sg21
I509870
sg22
I318607
sg23
g5
sg24
I0
sg25
g5
sg26
I235370
sg27
I192008
sg28
I900585
sg29
I0
sg30
I0
sg31
I83237
ssS'MCCLELLAN GEORGE'
p225
(dp226
g3
I1744
sg4
g5
sg6
I228763
sg7
I1521
sg8
I00
sg9
I-125000
sg10
S'george.mcclellan@enron.com'
p227
sg12
g5
sg13
g5
sg14
I1469
sg15
g5
sg16
I49
sg17
I51587
sg18
F0.0
sg19
g5
sg20
I3936802
sg21
I900000
sg22
I947861
sg23
I52
sg24
I52
sg25
I0
sg26
I441096
sg27
I263413
sg28
I1318763
sg29
F0.02981651376146789
sg30
I0
sg31
I506765
ssS'HERMANN ROBERT J'
p228
(dp229
g3
g5
sg4
g5
sg6
I48357
sg7
I0
sg8
I00
sg9
I-280000
sg10
S'robert.hermann@enron.com'
p230
sg12
I150000
sg13
g5
sg14
g5
sg15
g5
sg16
g5
sg17
I416441
sg18
I0
sg19
g5
sg20
I3265756
sg21
I700000
sg22
I668132
sg23
g5
sg24
I0
sg25
g5
sg26
I480632
sg27
I262663
sg28
I1297461
sg29
I0
sg30
I0
sg31
I187500
ssS'SCRIMSHAW MATTHEW'
p231
(dp232
g3
g5
sg4
g5
sg6
g5
sg7
I0
sg8
I00
sg9
g5
sg10
S'matthew.scrimshaw@enron.com'
p233
sg12
g5
sg13
g5
sg14
g5
sg15
g5
sg16
g5
sg17
g5
sg18
I0
sg19
g5
sg20
I1519114
sg21
g5
sg22
I759557
sg23
g5
sg24
I0
sg25
g5
sg26
g5
sg27
g5
sg28
g5
sg29
I0
sg30
I0
sg31
I759557
ssS'GATHMANN WILLIAM D'
p234
(dp235
g3
g5
sg4
g5
sg6
g5
sg7
I0
sg8
I00
sg9
g5
sg10
g5
sg12
g5
sg13
I-72419
sg14
g5
sg15
g5
sg16
g5
sg17
g5
sg18
I0
sg19
g5
sg20
I3699126
sg21
g5
sg22
I1945360
sg23
g5
sg24
I0
sg25
g5
sg26
I264013
sg27
g5
sg28
g5
sg29
I0
sg30
I0
sg31
I1753766
ssS'HAEDICKE MARK E'
p236
(dp237
g3
I4009
sg4
I2157527
sg6
I76169
sg7
I2088
sg8
I00
sg9
I-934484
sg10
S'mark.haedicke@enron.com'
p238
sg12
I983346
sg13
I-329825
sg14
I1847
sg15
g5
sg16
I1941
sg17
I52382
sg18
F0.03142709943328181
sg19
g5
sg20
I7778380
sg21
I1150000
sg22
I803094
sg23
I180
sg24
I241
sg25
I61
sg26
I524169
sg27
I374125
sg28
I3859065
sg29
F0.04489897730107259
sg30
I0
sg31
I608750
ssS'BOWEN JR RAYMOND M'
p239
(dp240
g3
I1858
sg4
g5
sg6
I65907
sg7
I1748
sg8
I01
sg9
I-833
sg10
S'raymond.bowen@enron.com'
p241
sg12
I974293
sg13
g5
sg14
I1593
sg15
g5
sg16
I27
sg17
I1621
sg18
F0.5555555555555556
sg19
g5
sg20
I5524538
sg21
I1350000
sg22
I252055
sg23
I140
sg24
I155
sg25
I15
sg26
I252055
sg27
I278601
sg28
I2669589
sg29
F0.07534983853606028
sg30
I0
sg31
g5
ssS'GILLIS JOHN'
p242
(dp243
g3
g5
sg4
g5
sg6
g5
sg7
I0
sg8
I00
sg9
g5
sg10
g5
sg12
g5
sg13
g5
sg14
g5
sg15
g5
sg16
g5
sg17
g5
sg18
I0
sg19
g5
sg20
I95444
sg21
g5
sg22
I85641
sg23
g5
sg24
I0
sg25
g5
sg26
I75838
sg27
g5
sg28
g5
sg29
I0
sg30
I0
sg31
I9803
ssS'FITZGERALD JAY L'
p244
(dp245
g3
I936
sg4
g5
sg6
I23870
sg7
I732
sg8
I00
sg9
g5
sg10
S'jay.fitzgerald@enron.com'
p246
sg12
I556416
sg13
g5
sg14
I723
sg15
g5
sg16
I16
sg17
I285414
sg18
F0.5
sg19
g5
sg20
I4806127
sg21
I350000
sg22
I1621236
sg23
I1
sg24
I9
sg25
I8
sg26
I956775
sg27
I199157
sg28
I1414857
sg29
F0.0010683760683760685
sg30
I0
sg31
I664461
ssS'MORAN MICHAEL P'
p247
(dp248
g3
I672
sg4
g5
sg6
g5
sg7
I127
sg8
I00
sg9
g5
sg10
S'michael.moran@enron.com'
p249
sg12
g5
sg13
g5
sg14
I127
sg15
g5
sg16
I19
sg17
g5
sg18
F0.0
sg19
g5
sg20
I280680
sg21
g5
sg22
I221141
sg23
I0
sg24
I0
sg25
I0
sg26
I161602
sg27
g5
sg28
g5
sg29
F0.0
sg30
I0
sg31
I59539
ssS'REDMOND BRIAN L'
p250
(dp251
g3
I1671
sg4
g5
sg6
I14689
sg7
I1316
sg8
I00
sg9
g5
sg10
S'brian.redmond@enron.com'
p252
sg12
g5
sg13
g5
sg14
I1063
sg15
g5
sg16
I221
sg17
g5
sg18
F0.22171945701357465
sg19
g5
sg20
I15607732
sg21
g5
sg22
I7890324
sg23
I204
sg24
I253
sg25
I49
sg26
I381285
sg27
I96840
sg28
I111529
sg29
F0.12208258527827648
sg30
I0
sg31
I7509039
ssS'BAZELIDES PHILIP J'
p253
(dp254
g3
g5
sg4
I684694
sg6
g5
sg7
I0
sg8
I00
sg9
g5
sg10
g5
sg12
I93750
sg13
g5
sg14
g5
sg15
g5
sg16
g5
sg17
I874
sg18
I0
sg19
g5
sg20
I4233986
sg21
g5
sg22
I1599641
sg23
g5
sg24
I0
sg25
g5
sg26
g5
sg27
I80818
sg28
I860136
sg29
I0
sg30
I0
sg31
I1599641
ssS'BELDEN TIMOTHY N'
p255
(dp256
g3
I7991
sg4
I2144013
sg6
I17355
sg7
I5857
sg8
I01
sg9
I-2334434
sg10
S'tim.belden@enron.com'
p257
sg12
g5
sg13
g5
sg14
I5521
sg15
g5
sg16
I484
sg17
I210698
sg18
F0.2231404958677686
sg19
g5
sg20
I13029469
sg21
I5249999
sg22
I1110705
sg23
I228
sg24
I336
sg25
I108
sg26
I157569
sg27
I213999
sg28
I5501630
sg29
F0.028532098610937303
sg30
I0
sg31
I953136
ssS'DURAN WILLIAM D'
p258
(dp259
g3
I904
sg4
g5
sg6
I25785
sg7
I708
sg8
I00
sg9
g5
sg10
S'w.duran@enron.com'
p260
sg12
I1105218
sg13
g5
sg14
I599
sg15
g5
sg16
I12
sg17
I1568
sg18
F0.25
sg19
g5
sg20
I7251952
sg21
I750000
sg22
I1640910
sg23
I106
sg24
I109
sg25
I3
sg26
I189041
sg27
I210692
sg28
I2093263
sg29
F0.1172566371681416
sg30
I0
sg31
I1451869
ssS'THORN TERENCE H'
p261
(dp262
g3
I266
sg4
I16586
sg6
I46145
sg7
I73
sg8
I00
sg9
g5
sg10
S'terence.thorn@enron.com'
p263
sg12
I200000
sg13
g5
sg14
I73
sg15
g5
sg16
I41
sg17
I426629
sg18
F0.0
sg19
g5
sg20
I10603818
sg21
g5
sg22
I4817796
sg23
I0
sg24
I0
sg25
I0
sg26
I365320
sg27
I222093
sg28
I911453
sg29
F0.0
sg30
I0
sg31
I4452476
ssS'FASTOW ANDREW S'
p264
(dp265
g3
g5
sg4
g5
sg6
I55921
sg7
I0
sg8
I01
sg9
I-1386055
sg10
S'andrew.fastow@enron.com'
p266
sg12
I1736055
sg13
g5
sg14
g5
sg15
g5
sg16
g5
sg17
I277464
sg18
I0
sg19
g5
sg20
I7695248
sg21
I1300000
sg22
I1794412
sg23
g5
sg24
I0
sg25
g5
sg26
I1794412
sg27
I440698
sg28
I2424083
sg29
I0
sg30
I0
sg31
g5
ssS'FOY JOE'
p267
(dp268
g3
I57
sg4
I181755
sg6
g5
sg7
I2
sg8
I00
sg9
g5
sg10
S'tracy.foy@enron.com'
p269
sg12
g5
sg13
g5
sg14
I2
sg15
g5
sg16
I13
sg17
g5
sg18
F0.0
sg19
g5
sg20
I868623
sg21
g5
sg22
I343434
sg23
I0
sg24
I0
sg25
I0
sg26
g5
sg27
g5
sg28
I181755
sg29
F0.0
sg30
I0
sg31
I343434
ssS'CALGER CHRISTOPHER F'
p270
(dp271
g3
I2598
sg4
g5
sg6
I35818
sg7
I2412
sg8
I01
sg9
I-262500
sg10
S'christopher.calger@enron.com'
p272
sg12
I375304
sg13
g5
sg14
I2188
sg15
g5
sg16
I144
sg17
I486
sg18
F0.1736111111111111
sg19
g5
sg20
I3630817
sg21
I1250000
sg22
I126027
sg23
I199
sg24
I224
sg25
I25
sg26
I126027
sg27
I240189
sg28
I1639297
sg29
F0.07659738260200154
sg30
I0
sg31
g5
ssS'RICE KENNETH D'
p273
(dp274
g3
I905
sg4
g5
sg6
I46950
sg7
I910
sg8
I01
sg9
I-3504386
sg10
S'ken.rice@enron.com'
p275
sg12
I1617011
sg13
g5
sg14
I864
sg15
g5
sg16
I18
sg17
I174839
sg18
F0.2222222222222222
sg19
g5
sg20
I46629411
sg21
I1750000
sg22
I22542539
sg23
I42
sg24
I46
sg25
I4
sg26
I2748364
sg27
I420636
sg28
I505050
sg29
F0.04640883977900553
sg30
I0
sg31
I19794175
ssS'KAMINSKI WINCENTY J'
p276
(dp277
g3
I4607
sg4
g5
sg6
I83585
sg7
I795
sg8
I00
sg9
g5
sg10
S'vince.kaminski@enron.com'
p278
sg12
I323466
sg13
g5
sg14
I583
sg15
g5
sg16
I14368
sg17
I4669
sg18
F0.011901447661469933
sg19
g5
sg20
I3911435
sg21
I400000
sg22
I976037
sg23
I41
sg24
I212
sg25
I171
sg26
I126027
sg27
I275101
sg28
I1086821
sg29
F0.008899500759713479
sg30
I0
sg31
I850010
ssS'COX DAVID'
p279
(dp280
g3
I102
sg4
g5
sg6
I27861
sg7
I75
sg8
I00
sg9
I-41250
sg10
S'chip.cox@enron.com'
p281
sg12
g5
sg13
g5
sg14
I71
sg15
g5
sg16
I33
sg17
I494
sg18
F0.12121212121212122
sg19
g5
sg20
I2828865
sg21
I800000
sg22
I495633
sg23
I0
sg24
I4
sg25
I4
sg26
I378082
sg27
I314288
sg28
I1101393
sg29
F0.0
sg30
I0
sg31
I117551
ssS'OVERDYKE JR JERE C'
p282
(dp283
g3
g5
sg4
g5
sg6
I18834
sg7
I0
sg8
I00
sg9
g5
sg10
S'jere.overdyke@enron.com'
p284
sg12
I135836
sg13
g5
sg14
g5
sg15
g5
sg16
g5
sg17
I176
sg18
I0
sg19
g5
sg20
I13054736
sg21
g5
sg22
I7307594
sg23
g5
sg24
I0
sg25
g5
sg26
I2041016
sg27
I94941
sg28
I249787
sg29
I0
sg30
I0
sg31
I5266578
ssS'PEREIRA PAULO V. FERRAZ'
p285
(dp286
g3
g5
sg4
g5
sg6
I27942
sg7
I0
sg8
I00
sg9
I-101250
sg10
g5
sg12
g5
sg13
g5
sg14
g5
sg15
g5
sg16
g5
sg17
g5
sg18
I0
sg19
I101250
sg20
I27942
sg21
g5
sg22
g5
sg23
g5
sg24
I0
sg25
g5
sg26
g5
sg27
g5
sg28
I27942
sg29
I0
sg30
I1
sg31
g5
ssS'STABLER FRANK'
p287
(dp288
g3
g5
sg4
g5
sg6
I16514
sg7
I0
sg8
I00
sg9
g5
sg10
S'frank.stabler@enron.com'
p289
sg12
g5
sg13
g5
sg14
g5
sg15
g5
sg16
g5
sg17
I356071
sg18
I0
sg19
g5
sg20
I2363323
sg21
I500000
sg22
I511734
sg23
g5
sg24
I0
sg25
g5
sg26
I511734
sg27
I239502
sg28
I1112087
sg29
I0
sg30
I0
sg31
g5
ssS'SKILLING JEFFREY K'
p290
(dp291
g3
I3627
sg4
g5
sg6
I29336
sg7
I2160
sg8
I01
sg9
g5
sg10
S'jeff.skilling@enron.com'
p292
sg12
I1920000
sg13
g5
sg14
I2042
sg15
g5
sg16
I108
sg17
I22122
sg18
F0.2777777777777778
sg19
g5
sg20
I62657646
sg21
I5600000
sg22
I26093672
sg23
I88
sg24
I118
sg25
I30
sg26
I6843672
sg27
I1111258
sg28
I8682716
sg29
F0.0242624758753791
sg30
I0
sg31
I19250000
ssS'BLAKE JR. NORMAN P'
p293
(dp294
g3
g5
sg4
g5
sg6
I1279
sg7
I0
sg8
I00
sg9
I-113784
sg10
g5
sg12
g5
sg13
g5
sg14
g5
sg15
g5
sg16
g5
sg17
g5
sg18
I0
sg19
I113784
sg20
I1279
sg21
g5
sg22
g5
sg23
g5
sg24
I0
sg25
g5
sg26
g5
sg27
g5
sg28
I1279
sg29
I0
sg30
I1
sg31
g5
ssS'SHERRICK JEFFREY B'
p295
(dp296
g3
I613
sg4
g5
sg6
g5
sg7
I640
sg8
I00
sg9
g5
sg10
S'jeffrey.sherrick@enron.com'
p297
sg12
g5
sg13
g5
sg14
I583
sg15
g5
sg16
I25
sg17
g5
sg18
F0.72
sg19
g5
sg20
I3258937
sg21
g5
sg22
I1832468
sg23
I39
sg24
I57
sg25
I18
sg26
I405999
sg27
g5
sg28
g5
sg29
F0.0636215334420881
sg30
I0
sg31
I1426469
ssS'PRENTICE JAMES'
p298
(dp299
g3
g5
sg4
I564348
sg6
g5
sg7
I0
sg8
I00
sg9
g5
sg10
S'james.prentice@enron.com'
p300
sg12
g5
sg13
g5
sg14
g5
sg15
g5
sg16
g5
sg17
g5
sg18
I0
sg19
g5
sg20
I2545619
sg21
g5
sg22
I1095040
sg23
g5
sg24
I0
sg25
g5
sg26
I208809
sg27
g5
sg28
I564348
sg29
I0
sg30
I0
sg31
I886231
ssS'GRAY RODNEY'
p301
(dp302
g3
g5
sg4
I93585
sg6
g5
sg7
I0
sg8
I00
sg9
g5
sg10
g5
sg12
I365625
sg13
g5
sg14
g5
sg15
g5
sg16
g5
sg17
I680833
sg18
I0
sg19
g5
sg20
I1518898
sg21
g5
sg22
g5
sg23
g5
sg24
I0
sg25
g5
sg26
g5
sg27
I6615
sg28
I1146658
sg29
I0
sg30
I0
sg31
g5
ssS'PICKERING MARK R'
p303
(dp304
g3
I898
sg4
g5
sg6
I31653
sg7
I735
sg8
I00
sg9
g5
sg10
S'mark.pickering@enron.com'
p305
sg12
g5
sg13
g5
sg14
I728
sg15
I400000
sg16
I67
sg17
g5
sg18
F0.0
sg19
g5
sg20
I2399323
sg21
I300000
sg22
I28798
sg23
I7
sg24
I7
sg25
I0
sg26
g5
sg27
I655037
sg28
I1386690
sg29
F0.0077951002227171495
sg30
I0
sg31
I28798
ssS'NOLES JAMES L'
p306
(dp307
g3
g5
sg4
I774401
sg6
g5
sg7
I0
sg8
I00
sg9
g5
sg10
g5
sg12
g5
sg13
I-94556
sg14
g5
sg15
g5
sg16
g5
sg17
g5
sg18
I0
sg19
g5
sg20
I1143106
sg21
g5
sg22
I368705
sg23
g5
sg24
I0
sg25
g5
sg26
I463261
sg27
g5
sg28
I774401
sg29
I0
sg30
I0
sg31
g5
ssS'KEAN STEVEN J'
p308
(dp309
g3
I12754
sg4
g5
sg6
I41953
sg7
I4166
sg8
I00
sg9
g5
sg10
S'steven.kean@enron.com'
p310
sg12
I300000
sg13
g5
sg14
I3639
sg15
g5
sg16
I6759
sg17
I1231
sg18
F0.05725699067909454
sg19
g5
sg20
I11627550
sg21
I1000000
sg22
I6153642
sg23
I140
sg24
I527
sg25
I387
sg26
I4131594
sg27
I404338
sg28
I1747522
sg29
F0.010976948408342482
sg30
I0
sg31
I2022048
ssS'FOWLER PEGGY'
p311
(dp312
g3
I517
sg4
g5
sg6
g5
sg7
I10
sg8
I00
sg9
g5
sg10
S'kulvinder.fowler@enron.com'
p313
sg12
g5
sg13
g5
sg14
I10
sg15
g5
sg16
I36
sg17
g5
sg18
F0.0
sg19
g5
sg20
I3209326
sg21
g5
sg22
I1884748
sg23
I0
sg24
I0
sg25
I0
sg26
I560170
sg27
g5
sg28
g5
sg29
F0.0
sg30
I0
sg31
I1324578
ssS'WASAFF GEORGE'
p314
(dp315
g3
I400
sg4
I831299
sg6
g5
sg7
I366
sg8
I00
sg9
I-583325
sg10
S'george.wasaff@enron.com'
p316
sg12
I200000
sg13
g5
sg14
I337
sg15
g5
sg16
I30
sg17
I1425
sg18
F0.23333333333333334
sg19
g5
sg20
I5544078
sg21
I325000
sg22
I2056427
sg23
I22
sg24
I29
sg25
I7
sg26
I388167
sg27
I259996
sg28
I1034395
sg29
F0.055
sg30
I0
sg31
I1668260
ssS'WHITE JR THOMAS E'
p317
(dp318
g3
g5
sg4
g5
sg6
I81353
sg7
I0
sg8
I00
sg9
g5
sg10
S'thomas.white@enron.com'
p319
sg12
g5
sg13
g5
sg14
g5
sg15
g5
sg16
g5
sg17
I1085463
sg18
I0
sg19
g5
sg20
I19143074
sg21
I450000
sg22
I15144123
sg23
g5
sg24
I0
sg25
g5
sg26
I13847074
sg27
I317543
sg28
I1934359
sg29
I0
sg30
I0
sg31
I1297049
ssS'CHRISTODOULOU DIOMEDES'
p320
(dp321
g3
g5
sg4
g5
sg6
g5
sg7
I0
sg8
I00
sg9
g5
sg10
S'diomedes.christodoulou@enron.com'
p322
sg12
g5
sg13
g5
sg14
g5
sg15
g5
sg16
g5
sg17
g5
sg18
I0
sg19
g5
sg20
I11205040
sg21
g5
sg22
I6077885
sg23
g5
sg24
I0
sg25
g5
sg26
I950730
sg27
g5
sg28
g5
sg29
I0
sg30
I0
sg31
I5127155
ssS'ALLEN PHILLIP K'
p323
(dp324
g3
I2902
sg4
I2869717
sg6
I13868
sg7
I1519
sg8
I00
sg9
I-3081055
sg10
S'phillip.allen@enron.com'
p325
sg12
I304805
sg13
I-126027
sg14
I1407
sg15
g5
sg16
I2195
sg17
I152
sg18
F0.029612756264236904
sg19
g5
sg20
I12625284
sg21
I4175000
sg22
I1729541
sg23
I47
sg24
I112
sg25
I65
sg26
I126027
sg27
I201955
sg28
I4484442
sg29
F0.016195727084769126
sg30
I0
sg31
I1729541
ssS'SHARP VICTORIA T'
p326
(dp327
g3
I3136
sg4
I187469
sg6
I116337
sg7
I2507
sg8
I00
sg9
g5
sg10
S'vicki.sharp@enron.com'
p328
sg12
I422158
sg13
g5
sg14
I2477
sg15
g5
sg16
I136
sg17
I2401
sg18
F0.04411764705882353
sg19
g5
sg20
I3622024
sg21
I600000
sg22
I494136
sg23
I24
sg24
I30
sg25
I6
sg26
I213063
sg27
I248146
sg28
I1576511
sg29
F0.007653061224489796
sg30
I0
sg31
I281073
ssS'JAEDICKE ROBERT'
p329
(dp330
g3
g5
sg4
g5
sg6
g5
sg7
I0
sg8
I00
sg9
I-25000
sg10
g5
sg12
g5
sg13
I-44093
sg14
g5
sg15
g5
sg16
g5
sg17
g5
sg18
I0
sg19
I108750
sg20
I947250
sg21
g5
sg22
I431750
sg23
g5
sg24
I0
sg25
g5
sg26
I44093
sg27
g5
sg28
I83750
sg29
I0
sg30
I1
sg31
I431750
ssS'WINOKUR JR. HERBERT S'
p331
(dp332
g3
g5
sg4
g5
sg6
I1413
sg7
I0
sg8
I00
sg9
I-25000
sg10
g5
sg12
g5
sg13
g5
sg14
g5
sg15
g5
sg16
g5
sg17
g5
sg18
I0
sg19
I108579
sg20
I84992
sg21
g5
sg22
g5
sg23
g5
sg24
I0
sg25
g5
sg26
g5
sg27
g5
sg28
I84992
sg29
I0
sg30
I1
sg31
g5
ssS'BROWN MICHAEL'
p333
(dp334
g3
I1486
sg4
g5
sg6
I49288
sg7
I775
sg8
I00
sg9
g5
sg10
S'michael.brown@enron.com'
p335
sg12
g5
sg13
g5
sg14
I761
sg15
g5
sg16
I41
sg17
g5
sg18
F0.024390243902439025
sg19
g5
sg20
I49288
sg21
g5
sg22
g5
sg23
I13
sg24
I14
sg25
I1
sg26
g5
sg27
g5
sg28
I49288
sg29
F0.008748317631224764
sg30
I0
sg31
g5
ssS'BADUM JAMES P'
p336
(dp337
g3
g5
sg4
I178980
sg6
I3486
sg7
I0
sg8
I00
sg9
g5
sg10
g5
sg12
g5
sg13
g5
sg14
g5
sg15
g5
sg16
g5
sg17
g5
sg18
I0
sg19
g5
sg20
I698100
sg21
g5
sg22
I257817
sg23
g5
sg24
I0
sg25
g5
sg26
g5
sg27
g5
sg28
I182466
sg29
I0
sg30
I0
sg31
I257817
ssS'HUGHES JAMES A'
p338
(dp339
g3
I719
sg4
g5
sg6
g5
sg7
I629
sg8
I00
sg9
g5
sg10
S'james.hughes@enron.com'
p340
sg12
g5
sg13
g5
sg14
I589
sg15
g5
sg16
I34
sg17
g5
sg18
F0.14705882352941177
sg19
g5
sg20
I1873360
sg21
g5
sg22
I1118394
sg23
I35
sg24
I40
sg25
I5
sg26
I363428
sg27
g5
sg28
g5
sg29
F0.048678720445062586
sg30
I0
sg31
I754966
ssS'REYNOLDS LAWRENCE'
p341
(dp342
g3
g5
sg4
I51365
sg6
I8409
sg7
I0
sg8
I00
sg9
I-200000
sg10
g5
sg12
I156250
sg13
I-140264
sg14
g5
sg15
g5
sg16
g5
sg17
I202052
sg18
I0
sg19
g5
sg20
I9109687
sg21
I100000
sg22
I4221891
sg23
g5
sg24
I0
sg25
g5
sg26
I201483
sg27
I76399
sg28
I394475
sg29
I0
sg30
I0
sg31
I4160672
ssS'DIMICHELE RICHARD G'
p343
(dp344
g3
g5
sg4
g5
sg6
I35812
sg7
I0
sg8
I00
sg9
g5
sg10
S'richard.dimichele@enron.com'
p345
sg12
I694862
sg13
g5
sg14
g5
sg15
g5
sg16
g5
sg17
I374689
sg18
I0
sg19
g5
sg20
I20835338
sg21
I1000000
sg22
I8317782
sg23
g5
sg24
I0
sg25
g5
sg26
I126027
sg27
I262788
sg28
I2368151
sg29
I0
sg30
I0
sg31
I8191755
ssS'BHATNAGAR SANJAY'
p346
(dp347
g3
I523
sg4
g5
sg6
g5
sg7
I464
sg8
I00
sg9
g5
sg10
S'sanjay.bhatnagar@enron.com'
p348
sg12
g5
sg13
I15456290
sg14
I463
sg15
g5
sg16
I29
sg17
I137864
sg18
F0.034482758620689655
sg19
I137864
sg20
I18060780
sg21
g5
sS'total_stock_value'
p349
S'NaN'
p350
sg23
I0
sg24
I1
sg25
I1
sg26
I-2604490
sg27
g5
sg28
I15456290
sg29
F0.0
sg30
I1
sg31
I2604490
ssS'CARTER REBECCA C'
p351
(dp352
g3
I312
sg4
g5
sg6
g5
sg7
I232
sg8
I00
sg9
I-159792
sg10
S'rebecca.carter@enron.com'
p353
sg12
I75000
sg13
I-307301
sg14
I196
sg15
g5
sg16
I15
sg17
I540
sg18
F0.4666666666666667
sg19
g5
sg20
I1114366
sg21
I300000
sg22
g5
sg23
I29
sg24
I36
sg25
I7
sg26
I307301
sg27
I261809
sg28
I477557
sg29
F0.09294871794871795
sg30
I0
sg31
g5
ssS'BUCHANAN HAROLD G'
p354
(dp355
g3
I1088
sg4
g5
sg6
I600
sg7
I23
sg8
I00
sg9
g5
sg10
S'john.buchanan@enron.com'
p356
sg12
I304805
sg13
g5
sg14
I23
sg15
g5
sg16
I125
sg17
I1215
sg18
F0.0
sg19
g5
sg20
I3947428
sg21
I500000
sg22
I1014505
sg23
I0
sg24
I0
sg25
I0
sg26
I189041
sg27
I248017
sg28
I1054637
sg29
F0.0
sg30
I0
sg31
I825464
ssS'YEAP SOON'
p357
(dp358
g3
g5
sg4
g5
sg6
I55097
sg7
I0
sg8
I00
sg9
g5
sg10
g5
sg12
g5
sg13
g5
sg14
g5
sg15
g5
sg16
g5
sg17
g5
sg18
I0
sg19
g5
sg20
I440613
sg21
g5
sg22
I192758
sg23
g5
sg24
I0
sg25
g5
sg26
g5
sg27
g5
sg28
I55097
sg29
I0
sg30
I0
sg31
I192758
ssS'MURRAY JULIA H'
p359
(dp360
g3
I2192
sg4
g5
sg6
I57580
sg7
I408
sg8
I00
sg9
g5
sg10
S'julia.murray@enron.com'
p361
sg12
I125000
sg13
g5
sg14
I395
sg15
g5
sg16
I45
sg17
I330
sg18
F0.044444444444444446
sg19
g5
sg20
I2564417
sg21
I400000
sg22
I597461
sg23
I11
sg24
I13
sg25
I2
sg26
I196983
sg27
I229284
sg28
I812194
sg29
F0.005018248175182482
sg30
I0
sg31
I400478
ssS'GARLAND C KEVIN'
p362
(dp363
g3
I209
sg4
g5
sg6
I48405
sg7
I215
sg8
I00
sg9
g5
sg10
S'kevin.garland@enron.com'
p364
sg12
I375304
sg13
g5
sg14
I178
sg15
g5
sg16
I44
sg17
I60814
sg18
F0.6136363636363636
sg19
g5
sg20
I4556118
sg21
I850000
sg22
I896153
sg23
I10
sg24
I37
sg25
I27
sg26
I259907
sg27
I231946
sg28
I1566469
sg29
F0.04784688995215311
sg30
I0
sg31
I636246
ssS'DODSON KEITH'
p365
(dp366
g3
I176
sg4
g5
sg6
I28164
sg7
I127
sg8
I00
sg9
g5
sg10
S'keith.dodson@enron.com'
p367
sg12
g5
sg13
g5
sg14
I114
sg15
g5
sg16
I14
sg17
I774
sg18
F0.21428571428571427
sg19
g5
sg20
I610944
sg21
I70000
sg22
g5
sg23
I10
sg24
I13
sg25
I3
sg26
g5
sg27
I221003
sg28
I319941
sg29
F0.056818181818181816
sg30
I0
sg31
g5
ssS'YEAGER F SCOTT'
p368
(dp369
g3
g5
sg4
g5
sg6
I53947
sg7
I0
sg8
I01
sg9
g5
sg10
S'scott.yeager@enron.com'
p370
sg12
g5
sg13
g5
sg14
g5
sg15
g5
sg16
g5
sg17
I147950
sg18
I0
sg19
g5
sg20
I20712013
sg21
g5
sg22
I11884758
sg23
g5
sg24
I0
sg25
g5
sg26
I3576206
sg27
I158403
sg28
I360300
sg29
I0
sg30
I0
sg31
I8308552
ssS'HIRKO JOSEPH'
p371
(dp372
g3
g5
sg4
I10259
sg6
I77978
sg7
I0
sg8
I01
sg9
g5
sg10
S'joe.hirko@enron.com'
p373
sg12
g5
sg13
g5
sg14
g5
sg15
g5
sg16
g5
sg17
I2856
sg18
I0
sg19
g5
sg20
I61623221
sg21
g5
sg22
I30766064
sg23
g5
sg24
I0
sg25
g5
sg26
g5
sg27
g5
sg28
I91093
sg29
I0
sg30
I0
sg31
I30766064
ssS'DIETRICH JANET R'
p374
(dp375
g3
I2572
sg4
g5
sg6
I3475
sg7
I2221
sg8
I00
sg9
g5
sg10
S'janet.dietrich@enron.com'
p376
sg12
I556416
sg13
g5
sg14
I1902
sg15
g5
sg16
I63
sg17
I473
sg18
F0.2222222222222222
sg19
g5
sg20
I6232086
sg21
I600000
sg22
I1865087
sg23
I305
sg24
I319
sg25
I14
sg26
I315068
sg27
I250100
sg28
I1410464
sg29
F0.11858475894245724
sg30
I0
sg31
I1550019
ssS'DERRICK JR. JAMES V'
p377
(dp378
g3
I2181
sg4
g5
sg6
I51124
sg7
I1485
sg8
I00
sg9
I-1284000
sg10
S'james.derrick@enron.com'
p379
sg12
I484000
sg13
I-1787380
sg14
I1401
sg15
g5
sg16
I909
sg17
I7482
sg18
F0.022002200220022004
sg19
g5
sg20
I19991182
sg21
I800000
sg22
I8831913
sg23
I64
sg24
I84
sg25
I20
sg26
I1787380
sg27
I492375
sg28
I550981
sg29
F0.029344337459880788
sg30
I0
sg31
I8831913
ssS'FREVERT MARK A'
p380
(dp381
g3
I3275
sg4
I6426990
sg6
I86987
sg7
I3227
sg8
I00
sg9
I-3367011
sg10
S'mark.frevert@enron.com'
p382
sg12
I1617011
sg13
g5
sg14
I2979
sg15
I2000000
sg16
I21
sg17
I7427621
sg18
F0.2857142857142857
sg19
g5
sg20
I46986176
sg21
I2000000
sg22
I14622185
sg23
I242
sg24
I248
sg25
I6
sg26
I4188667
sg27
I1060932
sg28
I17252530
sg29
F0.07389312977099237
sg30
I0
sg31
I10433518
ssS'PAI LOU L'
p383
(dp384
g3
g5
sg4
g5
sg6
I32047
sg7
I0
sg8
I00
sg9
g5
sg10
S'lou.pai@enron.com'
p385
sg12
g5
sg13
g5
sg14
g5
sg15
g5
sg16
g5
sg17
I1829457
sg18
I0
sg19
g5
sg20
I43567359
sg21
I1000000
sg22
I23817930
sg23
g5
sg24
I0
sg25
g5
sg26
I8453763
sg27
I261879
sg28
I3123383
sg29
I0
sg30
I0
sg31
I15364167
ssS'BAY FRANKLIN R'
p386
(dp387
g3
g5
sg4
I260455
sg6
I129142
sg7
I0
sg8
I00
sg9
I-201641
sg10
S'frank.bay@enron.com'
p388
sg12
g5
sg13
I-82782
sg14
g5
sg15
g5
sg16
g5
sg17
I69
sg18
I0
sg19
g5
sg20
I1530381
sg21
I400000
sg22
I63014
sg23
g5
sg24
I0
sg25
g5
sg26
I145796
sg27
I239671
sg28
I827696
sg29
I0
sg30
I0
sg31
g5
ssS'HAYSLETT RODERICK J'
p389
(dp390
g3
I2649
sg4
g5
sg6
g5
sg7
I644
sg8
I00
sg9
g5
sg10
S'rod.hayslett@enron.com'
p391
sg12
g5
sg13
g5
sg14
I571
sg15
g5
sg16
I1061
sg17
g5
sg18
F0.03581526861451461
sg19
g5
sg20
I346663
sg21
g5
sg22
I346663
sg23
I35
sg24
I73
sg25
I38
sg26
I346663
sg27
g5
sg28
g5
sg29
F0.01321253303133258
sg30
I0
sg31
g5
ssS'FUGH JOHN L'
p392
(dp393
g3
g5
sg4
I50591
sg6
g5
sg7
I0
sg8
I00
sg9
g5
sg10
g5
sg12
g5
sg13
g5
sg14
g5
sg15
g5
sg16
g5
sg17
g5
sg18
I0
sg19
g5
sg20
I403347
sg21
g5
sg22
I176378
sg23
g5
sg24
I0
sg25
g5
sg26
g5
sg27
g5
sg28
I50591
sg29
I0
sg30
I0
sg31
I176378
ssS'FALLON JAMES B'
p394
(dp395
g3
I1755
sg4
g5
sg6
I95924
sg7
I1683
sg8
I00
sg9
g5
sg10
S'jim.fallon@enron.com'
p396
sg12
I374347
sg13
g5
sg14
I1604
sg15
g5
sg16
I75
sg17
I401481
sg18
F0.49333333333333335
sg19
g5
sg20
I10127931
sg21
I2500000
sg22
I2332399
sg23
I42
sg24
I79
sg25
I37
sg26
I1392142
sg27
I304588
sg28
I3676340
sg29
F0.023931623931623933
sg30
I0
sg31
I940257
ssS'KOENIG MARK E'
p397
(dp398
g3
I2374
sg4
g5
sg6
I127017
sg7
I2339
sg8
I01
sg9
g5
sg10
S'mark.koenig@enron.com'
p399
sg12
I300000
sg13
g5
sg14
I2271
sg15
g5
sg16
I61
sg17
I150458
sg18
F0.2459016393442623
sg19
g5
sg20
I5489159
sg21
I700000
sg22
I1920055
sg23
I53
sg24
I68
sg25
I15
sg26
I1248318
sg27
I309946
sg28
I1587421
sg29
F0.02232518955349621
sg30
I0
sg31
I671737
ssS'SAVAGE FRANK'
p400
(dp401
g3
g5
sg4
g5
sg6
g5
sg7
I0
sg8
I00
sg9
I-121284
sg10
g5
sg12
g5
sg13
g5
sg14
g5
sg15
g5
sg16
g5
sg17
g5
sg18
I0
sg19
I125034
sg20
I3750
sg21
g5
sg22
g5
sg23
g5
sg24
I0
sg25
g5
sg26
g5
sg27
g5
sg28
I3750
sg29
I0
sg30
I1
sg31
g5
ssS'IZZO LAWRENCE L'
p402
(dp403
g3
I496
sg4
g5
sg6
I28093
sg7
I470
sg8
I00
sg9
g5
sg10
S'larry.izzo@enron.com'
p404
sg12
I312500
sg13
g5
sg14
I437
sg15
g5
sg16
I19
sg17
I1553729
sg18
F0.2631578947368421
sg19
g5
sg20
I10362522
sg21
g5
sg22
I5819980
sg23
I28
sg24
I33
sg25
I5
sg26
I3654808
sg27
I85274
sg28
I1979596
sg29
F0.056451612903225805
sg30
I0
sg31
I2165172
ssS'TILNEY ELIZABETH A'
p405
(dp406
g3
I460
sg4
g5
sg6
g5
sg7
I400
sg8
I00
sg9
I-575000
sg10
S'elizabeth.tilney@enron.com'
p407
sg12
I275000
sg13
g5
sg14
I379
sg15
g5
sg16
I19
sg17
I152055
sg18
F0.5789473684210527
sg19
g5
sg20
I2981023
sg21
I300000
sg22
I1168042
sg23
I10
sg24
I21
sg25
I11
sg26
I576792
sg27
I247338
sg28
I399393
sg29
F0.021739130434782608
sg30
I0
sg31
I591250
ssS'MARTIN AMANDA K'
p408
(dp409
g3
I1522
sg4
I85430
sg6
I8211
sg7
I485
sg8
I00
sg9
g5
sg10
S'a..martin@enron.com'
p410
sg12
I5145434
sg13
g5
sg14
I477
sg15
g5
sg16
I230
sg17
I2818454
sg18
F0.0
sg19
g5
sg20
I18042549
sg21
g5
sg22
I2070306
sg23
I8
sg24
I8
sg25
I0
sg26
g5
sg27
I349487
sg28
I8407016
sg29
F0.005256241787122208
sg30
I0
sg31
I2070306
ssS'BUY RICHARD B'
p411
(dp412
g3
I3523
sg4
I649584
sg6
g5
sg7
I2560
sg8
I00
sg9
I-694862
sg10
S'rick.buy@enron.com'
p413
sg12
I769862
sg13
g5
sg14
I2333
sg15
g5
sg16
I1053
sg17
I400572
sg18
F0.06742640075973409
sg19
g5
sg20
I10343393
sg21
I900000
sg22
I3444470
sg23
I156
sg24
I227
sg25
I71
sg26
I901657
sg27
I330546
sg28
I2355702
sg29
F0.04428044280442804
sg30
I0
sg31
I2542813
ssS'GRAMM WENDY L'
p414
(dp415
g3
g5
sg4
g5
sg6
g5
sg7
I0
sg8
I00
sg9
g5
sg10
g5
sg12
g5
sg13
g5
sg14
g5
sg15
g5
sg16
g5
sg17
g5
sg18
I0
sg19
I119292
sg20
I119292
sg21
g5
sg22
g5
sg23
g5
sg24
I0
sg25
g5
sg26
g5
sg27
g5
sg28
I119292
sg29
I0
sg30
I1
sg31
g5
ssS'CAUSEY RICHARD A'
p416
(dp417
g3
I1892
sg4
g5
sg6
I30674
sg7
I1655
sg8
I01
sg9
I-235000
sg10
S'richard.causey@enron.com'
p418
sg12
I350000
sg13
g5
sg14
I1585
sg15
g5
sg16
I49
sg17
I307895
sg18
F0.24489795918367346
sg19
g5
sg20
I6136010
sg21
I1000000
sg22
I2502063
sg23
I58
sg24
I70
sg25
I12
sg26
I2502063
sg27
I415189
sg28
I1868758
sg29
F0.0306553911205074
sg30
I0
sg31
g5
ssS'TAYLOR MITCHELL S'
p419
(dp420
g3
I533
sg4
I227449
sg6
g5
sg7
I300
sg8
I00
sg9
g5
sg10
S'mitchell.taylor@enron.com'
p421
sg12
g5
sg13
g5
sg14
I300
sg15
g5
sg16
I29
sg17
g5
sg18
F0.0
sg19
g5
sg20
I8884175
sg21
I600000
sg22
I3745048
sg23
I0
sg24
I0
sg25
I0
sg26
I563798
sg27
I265214
sg28
I1092663
sg29
F0.0
sg30
I0
sg31
I3181250
ssS'DONAHUE JR JEFFREY M'
p422
(dp423
g3
I865
sg4
g5
sg6
I96268
sg7
I971
sg8
I00
sg9
I-300000
sg10
S'jeff.donahue@enron.com'
p424
sg12
g5
sg13
g5
sg14
I772
sg15
g5
sg16
I22
sg17
I891
sg18
F0.5
sg19
g5
sg20
I3801269
sg21
I800000
sg22
I1080988
sg23
I188
sg24
I199
sg25
I11
sg26
I315068
sg27
I278601
sg28
I875760
sg29
F0.21734104046242775
sg30
I0
sg31
I765920
ssS'GLISAN JR BEN F'
p425
(dp426
g3
I873
sg4
g5
sg6
I125978
sg7
I932
sg8
I01
sg9
g5
sg10
S'ben.glisan@enron.com'
p427
sg12
I71023
sg13
g5
sg14
I874
sg15
g5
sg16
I16
sg17
I200308
sg18
F0.375
sg19
g5
sg20
I3381556
sg21
I600000
sg22
I778546
sg23
I52
sg24
I58
sg25
I6
sg26
I393818
sg27
I274975
sg28
I1272284
sg29
F0.05956471935853379
sg30
I0
sg31
I384728
ss.