ccopy_reg
_reconstructor
p0
(csklearn.grid_search
GridSearchCV
p1
c__builtin__
object
p2
Ntp3
Rp4
(dp5
S'scoring'
p6
NsS'n_jobs'
p7
I1
sS'verbose'
p8
I0
sS'fit_params'
p9
(dp10
sS'refit'
p11
I01
sS'iid'
p12
I01
sS'estimator'
p13
g0
(csklearn.pipeline
Pipeline
p14
g2
Ntp15
Rp16
(dp17
S'steps'
p18
(lp19
(S'pca'
p20
g0
(csklearn.decomposition.pca
PCA
p21
g2
Ntp22
Rp23
(dp24
S'copy'
p25
I01
sS'n_components'
p26
NsS'whiten'
p27
I00
sbtp28
a(S'dt'
p29
g0
(csklearn.tree.tree
DecisionTreeClassifier
p30
g2
Ntp31
Rp32
(dp33
S'presort'
p34
I00
sS'splitter'
p35
S'best'
p36
sS'tree_'
p37
NsS'n_features_'
p38
NsS'n_outputs_'
p39
NsS'n_classes_'
p40
NsS'random_state'
p41
NsS'classes_'
p42
NsS'max_features_'
p43
NsS'min_samples_leaf'
p44
I3
sS'max_features'
p45
NsS'min_weight_fraction_leaf'
p46
F0.0
sS'criterion'
p47
S'gini'
p48
sS'max_leaf_nodes'
p49
NsS'min_samples_split'
p50
I10
sS'max_depth'
p51
I10
sS'class_weight'
p52
Nsbtp53
asbsS'error_score'
p54
S'raise'
p55
sS'pre_dispatch'
p56
S'2*n_jobs'
p57
sS'param_grid'
p58
(dp59
sS'cv'
p60
Nsb.