ccopy_reg
_reconstructor
p0
(csklearn.grid_search
GridSearchCV
p1
c__builtin__
object
p2
Ntp3
Rp4
(dp5
S'scoring'
p6
NsS'n_jobs'
p7
I1
sS'verbose'
p8
I0
sS'fit_params'
p9
(dp10
sS'refit'
p11
I01
sS'iid'
p12
I01
sS'estimator'
p13
g0
(csklearn.pipeline
Pipeline
p14
g2
Ntp15
Rp16
(dp17
S'steps'
p18
(lp19
(S'select'
p20
g0
(cdummy_transform
DummyTransform
p21
g2
Ntp22
Rp23
tp24
a(S'scaler'
p25
g23
tp26
a(S'pca'
p27
g0
(csklearn.decomposition.pca
PCA
p28
g2
Ntp29
Rp30
(dp31
S'copy'
p32
I01
sS'n_components'
p33
NsS'whiten'
p34
I00
sbtp35
a(S'clf'
p36
g0
(csklearn.tree.tree
DecisionTreeClassifier
p37
g2
Ntp38
Rp39
(dp40
S'presort'
p41
I00
sS'splitter'
p42
S'best'
p43
sS'tree_'
p44
NsS'n_features_'
p45
NsS'n_outputs_'
p46
NsS'n_classes_'
p47
NsS'random_state'
p48
NsS'classes_'
p49
NsS'max_features_'
p50
NsS'min_samples_leaf'
p51
I3
sS'max_features'
p52
NsS'min_weight_fraction_leaf'
p53
F0.0
sS'criterion'
p54
S'gini'
p55
sS'max_leaf_nodes'
p56
NsS'min_samples_split'
p57
I10
sS'max_depth'
p58
I10
sS'class_weight'
p59
Nsbtp60
asbsS'error_score'
p61
S'raise'
p62
sS'pre_dispatch'
p63
S'2*n_jobs'
p64
sS'param_grid'
p65
(dp66
sS'cv'
p67
Nsb.