ccopy_reg
_reconstructor
p0
(csklearn.pipeline
Pipeline
p1
c__builtin__
object
p2
Ntp3
Rp4
(dp5
S'steps'
p6
(lp7
(S'select'
p8
g0
(cdummy_transform
DummyTransform
p9
g2
Ntp10
Rp11
tp12
a(S'scaler'
p13
g11
tp14
a(S'pca'
p15
g0
(csklearn.decomposition.pca
PCA
p16
g2
Ntp17
Rp18
(dp19
S'copy'
p20
I01
sS'n_components'
p21
NsS'whiten'
p22
I00
sbtp23
a(S'clf'
p24
g0
(csklearn.tree.tree
DecisionTreeClassifier
p25
g2
Ntp26
Rp27
(dp28
S'presort'
p29
I00
sS'splitter'
p30
S'best'
p31
sS'tree_'
p32
NsS'n_features_'
p33
NsS'n_outputs_'
p34
NsS'n_classes_'
p35
NsS'random_state'
p36
NsS'classes_'
p37
NsS'max_features_'
p38
NsS'min_samples_leaf'
p39
I3
sS'max_features'
p40
NsS'min_weight_fraction_leaf'
p41
F0.0
sS'criterion'
p42
S'gini'
p43
sS'max_leaf_nodes'
p44
NsS'min_samples_split'
p45
I10
sS'max_depth'
p46
I10
sS'class_weight'
p47
Nsbtp48
asb.