(lp0
S'poi'
p1
aS'salary'
p2
aS'total_payments'
p3
aS'exercised_stock_options'
p4
aS'restricted_stock'
p5
aS'expenses'
p6
aS'director_fees'
p7
aS'deferred_income'
p8
aS'from_poi_to_this_person_fraction'
p9
aS'from_this_person_to_poi_fraction'
p10
aS'poi_email_reciept_interaction'
p11
a.